
rtthread-realview.elf:     file format elf32-littlearm


Disassembly of section .text:

00008000 <system_vectors>:
    8000:	e59ff018 	ldr	pc, [pc, #24]	; 8020 <_vector_reset>
    8004:	e59ff018 	ldr	pc, [pc, #24]	; 8024 <_vector_undef>
    8008:	e59ff018 	ldr	pc, [pc, #24]	; 8028 <_vector_swi>
    800c:	e59ff018 	ldr	pc, [pc, #24]	; 802c <_vector_pabt>
    8010:	e59ff018 	ldr	pc, [pc, #24]	; 8030 <_vector_dabt>
    8014:	e59ff018 	ldr	pc, [pc, #24]	; 8034 <_vector_resv>
    8018:	e59ff018 	ldr	pc, [pc, #24]	; 8038 <_vector_irq>
    801c:	e59ff018 	ldr	pc, [pc, #24]	; 803c <_vector_fiq>

00008020 <_vector_reset>:
    8020:	000094a0 	andeq	r9, r0, r0, lsr #9

00008024 <_vector_undef>:
    8024:	00009560 	andeq	r9, r0, r0, ror #10

00008028 <_vector_swi>:
    8028:	000095a0 	andeq	r9, r0, r0, lsr #11

0000802c <_vector_pabt>:
    802c:	000095c0 	andeq	r9, r0, r0, asr #11

00008030 <_vector_dabt>:
    8030:	000095e0 	andeq	r9, r0, r0, ror #11

00008034 <_vector_resv>:
    8034:	00009620 	andeq	r9, r0, r0, lsr #12

00008038 <_vector_irq>:
    8038:	00009650 	andeq	r9, r0, r0, asr r6

0000803c <_vector_fiq>:
    803c:	00009640 	andeq	r9, r0, r0, asr #12

00008040 <test_task>:
    8040:	e92d4038 	push	{r3, r4, r5, lr}
    8044:	e3a05000 	mov	r5, #0
    8048:	e3a00ffa 	mov	r0, #1000	; 0x3e8
    804c:	e2854001 	add	r4, r5, #1
    8050:	eb001fdc 	bl	ffc8 <rt_thread_delay>
    8054:	e1a01005 	mov	r1, r5
    8058:	e30c0800 	movw	r0, #51200	; 0xc800
    805c:	e3400002 	movt	r0, #2
    8060:	eb001906 	bl	e480 <rt_kprintf>
    8064:	e1a05004 	mov	r5, r4
    8068:	eafffff6 	b	8048 <test_task+0x8>

0000806c <rt_application_init>:
    806c:	e92d4010 	push	{r4, lr}
    8070:	e30c480c 	movw	r4, #51212	; 0xc80c
    8074:	e3404002 	movt	r4, #2
    8078:	e24dd008 	sub	sp, sp, #8
    807c:	eb0045ba 	bl	1976c <rt_components_init>
    8080:	e1a00004 	mov	r0, r4
    8084:	eb0045d7 	bl	197e8 <libc_system_init>
    8088:	e1a00004 	mov	r0, r4
    808c:	eb0028a3 	bl	12320 <finsh_set_device>
    8090:	e3a01000 	mov	r1, #0
    8094:	e1a03001 	mov	r3, r1
    8098:	e28d0004 	add	r0, sp, #4
    809c:	e3082040 	movw	r2, #32832	; 0x8040
    80a0:	e3402000 	movt	r2, #0
    80a4:	eb004840 	bl	1a1ac <pthread_create>
    80a8:	e3080c08 	movw	r0, #35848	; 0x8c08
    80ac:	e3400000 	movt	r0, #0
    80b0:	eb0007c2 	bl	9fc0 <rt_thread_idle_sethook>
    80b4:	e3a00000 	mov	r0, #0
    80b8:	e28dd008 	add	sp, sp, #8
    80bc:	e8bd8010 	pop	{r4, pc}

000080c0 <rt_hw_timer_init>:
    80c0:	e3a0ca01 	mov	ip, #4096	; 0x1000
    80c4:	e341c001 	movt	ip, #4097	; 0x1001
    80c8:	e92d4008 	push	{r3, lr}
    80cc:	e3a03ffa 	mov	r3, #1000	; 0x3e8
    80d0:	e58c3000 	str	r3, [ip]
    80d4:	e3a02000 	mov	r2, #0
    80d8:	e59ce008 	ldr	lr, [ip, #8]
    80dc:	e3a00022 	mov	r0, #34	; 0x22
    80e0:	e3081118 	movw	r1, #33048	; 0x8118
    80e4:	e30c3814 	movw	r3, #51220	; 0xc814
    80e8:	e3cee080 	bic	lr, lr, #128	; 0x80
    80ec:	e58ce008 	str	lr, [ip, #8]
    80f0:	e59ce008 	ldr	lr, [ip, #8]
    80f4:	e3401000 	movt	r1, #0
    80f8:	e3403002 	movt	r3, #2
    80fc:	e38ee0e2 	orr	lr, lr, #226	; 0xe2
    8100:	e58ce008 	str	lr, [ip, #8]
    8104:	eb000203 	bl	8918 <rt_hw_interrupt_install>
    8108:	e3a00022 	mov	r0, #34	; 0x22
    810c:	eb0001fe 	bl	890c <rt_hw_interrupt_umask>
    8110:	e3a00000 	mov	r0, #0
    8114:	e8bd8008 	pop	{r3, pc}

00008118 <rt_hw_timer_isr>:
    8118:	e92d4008 	push	{r3, lr}
    811c:	eb000604 	bl	9934 <rt_tick_increase>
    8120:	e3a03a01 	mov	r3, #4096	; 0x1000
    8124:	e3413001 	movt	r3, #4097	; 0x1001
    8128:	e3a02001 	mov	r2, #1
    812c:	e583200c 	str	r2, [r3, #12]
    8130:	e8bd8008 	pop	{r3, pc}

00008134 <rt_hw_board_init>:
    8134:	e92d4008 	push	{r3, lr}
    8138:	ebffffe0 	bl	80c0 <rt_hw_timer_init>
    813c:	eb000571 	bl	9708 <rt_hw_uart_init>
    8140:	e30c080c 	movw	r0, #51212	; 0xc80c
    8144:	e3400002 	movt	r0, #2
    8148:	e8bd4008 	pop	{r3, lr}
    814c:	ea0018b9 	b	e438 <rt_console_set_device>

00008150 <rtthread_startup>:
    8150:	e92d4008 	push	{r3, lr}
    8154:	eb0001c0 	bl	885c <rt_hw_interrupt_init>
    8158:	ebfffff5 	bl	8134 <rt_hw_board_init>
    815c:	eb0018e9 	bl	e508 <rt_show_version>
    8160:	e300046c 	movw	r0, #1132	; 0x46c
    8164:	e3a01000 	mov	r1, #0
    8168:	e3400003 	movt	r0, #3
    816c:	e3471040 	movt	r1, #28736	; 0x7040
    8170:	eb0019a4 	bl	e808 <rt_system_heap_init>
    8174:	eb001cfa 	bl	f564 <rt_system_scheduler_init>
    8178:	eb0021bb 	bl	1086c <rt_system_timer_thread_init>
    817c:	ebffffba 	bl	806c <rt_application_init>
    8180:	eb0007e7 	bl	a124 <rt_thread_idle_init>
    8184:	e8bd4008 	pop	{r3, lr}
    8188:	ea001d16 	b	f5e8 <rt_system_scheduler_start>

0000818c <rt_hw_cpu_reset>:
    818c:	eafffffe 	b	818c <rt_hw_cpu_reset>

00008190 <rt_hw_cpu_shutdown>:
    8190:	e92d4010 	push	{r4, lr}
    8194:	e30c081c 	movw	r0, #51228	; 0xc81c
    8198:	e24dd008 	sub	sp, sp, #8
    819c:	e3400002 	movt	r0, #2
    81a0:	eb0018b6 	bl	e480 <rt_kprintf>
    81a4:	eb000291 	bl	8bf0 <rt_hw_interrupt_disable>
    81a8:	e3500000 	cmp	r0, #0
    81ac:	0a00000d 	beq	81e8 <rt_hw_cpu_shutdown+0x58>
    81b0:	e3a04000 	mov	r4, #0
    81b4:	e30c082c 	movw	r0, #51244	; 0xc82c
    81b8:	e30c1b44 	movw	r1, #52036	; 0xcb44
    81bc:	e30b23b8 	movw	r2, #46008	; 0xb3b8
    81c0:	e3400002 	movt	r0, #2
    81c4:	e3401002 	movt	r1, #2
    81c8:	e3402002 	movt	r2, #2
    81cc:	e3a0302a 	mov	r3, #42	; 0x2a
    81d0:	e5cd4007 	strb	r4, [sp, #7]
    81d4:	eb0018a9 	bl	e480 <rt_kprintf>
    81d8:	e5dd3007 	ldrb	r3, [sp, #7]
    81dc:	e3530000 	cmp	r3, #0
    81e0:	0afffffc 	beq	81d8 <rt_hw_cpu_shutdown+0x48>
    81e4:	eafffff2 	b	81b4 <rt_hw_cpu_shutdown+0x24>
    81e8:	e28dd008 	add	sp, sp, #8
    81ec:	e8bd8010 	pop	{r4, pc}

000081f0 <arm_gic_get_active_irq>:
    81f0:	e92d4010 	push	{r4, lr}
    81f4:	e2504000 	subs	r4, r0, #0
    81f8:	e24dd008 	sub	sp, sp, #8
    81fc:	1a00000c 	bne	8234 <arm_gic_get_active_irq+0x44>
    8200:	e0844084 	add	r4, r4, r4, lsl #1
    8204:	e30e0108 	movw	r0, #57608	; 0xe108
    8208:	e3400002 	movt	r0, #2
    820c:	e1a04104 	lsl	r4, r4, #2
    8210:	e0801004 	add	r1, r0, r4
    8214:	e7900004 	ldr	r0, [r0, r4]
    8218:	e5913008 	ldr	r3, [r1, #8]
    821c:	e593c00c 	ldr	ip, [r3, #12]
    8220:	e1a02b0c 	lsl	r2, ip, #22
    8224:	e1a01b22 	lsr	r1, r2, #22
    8228:	e0810000 	add	r0, r1, r0
    822c:	e28dd008 	add	sp, sp, #8
    8230:	e8bd8010 	pop	{r4, pc}
    8234:	e30c082c 	movw	r0, #51244	; 0xc82c
    8238:	e30c184c 	movw	r1, #51276	; 0xc84c
    823c:	e30b23cc 	movw	r2, #46028	; 0xb3cc
    8240:	e3400002 	movt	r0, #2
    8244:	e3401002 	movt	r1, #2
    8248:	e3402002 	movt	r2, #2
    824c:	e3a03024 	mov	r3, #36	; 0x24
    8250:	e3a0c000 	mov	ip, #0
    8254:	e5cdc007 	strb	ip, [sp, #7]
    8258:	eb001888 	bl	e480 <rt_kprintf>
    825c:	e5dd3007 	ldrb	r3, [sp, #7]
    8260:	e3530000 	cmp	r3, #0
    8264:	0afffffc 	beq	825c <arm_gic_get_active_irq+0x6c>
    8268:	eaffffe4 	b	8200 <arm_gic_get_active_irq+0x10>

0000826c <arm_gic_ack>:
    826c:	e92d41f0 	push	{r4, r5, r6, r7, r8, lr}
    8270:	e1a05fc1 	asr	r5, r1, #31
    8274:	e2506000 	subs	r6, r0, #0
    8278:	e1a04001 	mov	r4, r1
    827c:	e1a00da5 	lsr	r0, r5, #27
    8280:	e3a08001 	mov	r8, #1
    8284:	e0812000 	add	r2, r1, r0
    8288:	e24dd008 	sub	sp, sp, #8
    828c:	e202101f 	and	r1, r2, #31
    8290:	e0603001 	rsb	r3, r0, r1
    8294:	e1a08318 	lsl	r8, r8, r3
    8298:	1a000013 	bne	82ec <arm_gic_ack+0x80>
    829c:	e1a07086 	lsl	r7, r6, #1
    82a0:	e30e5108 	movw	r5, #57608	; 0xe108
    82a4:	e0870006 	add	r0, r7, r6
    82a8:	e3405002 	movt	r5, #2
    82ac:	e7953100 	ldr	r3, [r5, r0, lsl #2]
    82b0:	e0544003 	subs	r4, r4, r3
    82b4:	4a00001f 	bmi	8338 <arm_gic_ack+0xcc>
    82b8:	e0876006 	add	r6, r7, r6
    82bc:	e3540000 	cmp	r4, #0
    82c0:	e284201f 	add	r2, r4, #31
    82c4:	e0855106 	add	r5, r5, r6, lsl #2
    82c8:	a1a02004 	movge	r2, r4
    82cc:	e1a032c2 	asr	r3, r2, #5
    82d0:	e9950006 	ldmib	r5, {r1, r2}
    82d4:	e081c103 	add	ip, r1, r3, lsl #2
    82d8:	e58c8180 	str	r8, [ip, #384]	; 0x180
    82dc:	e5824010 	str	r4, [r2, #16]
    82e0:	e58c8100 	str	r8, [ip, #256]	; 0x100
    82e4:	e28dd008 	add	sp, sp, #8
    82e8:	e8bd81f0 	pop	{r4, r5, r6, r7, r8, pc}
    82ec:	e30c082c 	movw	r0, #51244	; 0xc82c
    82f0:	e30c184c 	movw	r1, #51276	; 0xc84c
    82f4:	e3400002 	movt	r0, #2
    82f8:	e3401002 	movt	r1, #2
    82fc:	e59f2068 	ldr	r2, [pc, #104]	; 836c <arm_gic_ack+0x100>
    8300:	e3a0302f 	mov	r3, #47	; 0x2f
    8304:	e3a0c000 	mov	ip, #0
    8308:	e5cdc007 	strb	ip, [sp, #7]
    830c:	eb00185b 	bl	e480 <rt_kprintf>
    8310:	e5dd7007 	ldrb	r7, [sp, #7]
    8314:	e3570000 	cmp	r7, #0
    8318:	0afffffc 	beq	8310 <arm_gic_ack+0xa4>
    831c:	e1a07086 	lsl	r7, r6, #1
    8320:	e30e5108 	movw	r5, #57608	; 0xe108
    8324:	e0870006 	add	r0, r7, r6
    8328:	e3405002 	movt	r5, #2
    832c:	e7953100 	ldr	r3, [r5, r0, lsl #2]
    8330:	e0544003 	subs	r4, r4, r3
    8334:	5affffdf 	bpl	82b8 <arm_gic_ack+0x4c>
    8338:	e30c082c 	movw	r0, #51244	; 0xc82c
    833c:	e30c1864 	movw	r1, #51300	; 0xc864
    8340:	e3400002 	movt	r0, #2
    8344:	e3401002 	movt	r1, #2
    8348:	e59f201c 	ldr	r2, [pc, #28]	; 836c <arm_gic_ack+0x100>
    834c:	e3a03032 	mov	r3, #50	; 0x32
    8350:	e3a0e000 	mov	lr, #0
    8354:	e5cde007 	strb	lr, [sp, #7]
    8358:	eb001848 	bl	e480 <rt_kprintf>
    835c:	e5dd1007 	ldrb	r1, [sp, #7]
    8360:	e3510000 	cmp	r1, #0
    8364:	0afffffc 	beq	835c <arm_gic_ack+0xf0>
    8368:	eaffffd2 	b	82b8 <arm_gic_ack+0x4c>
    836c:	0002b3e4 	andeq	fp, r2, r4, ror #7

00008370 <arm_gic_mask>:
    8370:	e92d41f0 	push	{r4, r5, r6, r7, r8, lr}
    8374:	e1a04fc1 	asr	r4, r1, #31
    8378:	e2506000 	subs	r6, r0, #0
    837c:	e1a05001 	mov	r5, r1
    8380:	e1a00da4 	lsr	r0, r4, #27
    8384:	e3a08001 	mov	r8, #1
    8388:	e0812000 	add	r2, r1, r0
    838c:	e24dd008 	sub	sp, sp, #8
    8390:	e202101f 	and	r1, r2, #31
    8394:	e0603001 	rsb	r3, r0, r1
    8398:	e1a08318 	lsl	r8, r8, r3
    839c:	1a000011 	bne	83e8 <arm_gic_mask+0x78>
    83a0:	e1a07086 	lsl	r7, r6, #1
    83a4:	e30e4108 	movw	r4, #57608	; 0xe108
    83a8:	e0870006 	add	r0, r7, r6
    83ac:	e3404002 	movt	r4, #2
    83b0:	e7943100 	ldr	r3, [r4, r0, lsl #2]
    83b4:	e0555003 	subs	r5, r5, r3
    83b8:	4a00001d 	bmi	8434 <arm_gic_mask+0xc4>
    83bc:	e0876006 	add	r6, r7, r6
    83c0:	e285301f 	add	r3, r5, #31
    83c4:	e3550000 	cmp	r5, #0
    83c8:	e0844106 	add	r4, r4, r6, lsl #2
    83cc:	b1a05003 	movlt	r5, r3
    83d0:	e594c004 	ldr	ip, [r4, #4]
    83d4:	e1a052c5 	asr	r5, r5, #5
    83d8:	e28c2d06 	add	r2, ip, #384	; 0x180
    83dc:	e7828105 	str	r8, [r2, r5, lsl #2]
    83e0:	e28dd008 	add	sp, sp, #8
    83e4:	e8bd81f0 	pop	{r4, r5, r6, r7, r8, pc}
    83e8:	e30c082c 	movw	r0, #51244	; 0xc82c
    83ec:	e30c184c 	movw	r1, #51276	; 0xc84c
    83f0:	e3400002 	movt	r0, #2
    83f4:	e3401002 	movt	r1, #2
    83f8:	e59f2068 	ldr	r2, [pc, #104]	; 8468 <arm_gic_mask+0xf8>
    83fc:	e3a0303d 	mov	r3, #61	; 0x3d
    8400:	e3a0c000 	mov	ip, #0
    8404:	e5cdc007 	strb	ip, [sp, #7]
    8408:	eb00181c 	bl	e480 <rt_kprintf>
    840c:	e5dd7007 	ldrb	r7, [sp, #7]
    8410:	e3570000 	cmp	r7, #0
    8414:	0afffffc 	beq	840c <arm_gic_mask+0x9c>
    8418:	e1a07086 	lsl	r7, r6, #1
    841c:	e30e4108 	movw	r4, #57608	; 0xe108
    8420:	e0870006 	add	r0, r7, r6
    8424:	e3404002 	movt	r4, #2
    8428:	e7943100 	ldr	r3, [r4, r0, lsl #2]
    842c:	e0555003 	subs	r5, r5, r3
    8430:	5affffe1 	bpl	83bc <arm_gic_mask+0x4c>
    8434:	e30c082c 	movw	r0, #51244	; 0xc82c
    8438:	e30c1864 	movw	r1, #51300	; 0xc864
    843c:	e3400002 	movt	r0, #2
    8440:	e3401002 	movt	r1, #2
    8444:	e59f201c 	ldr	r2, [pc, #28]	; 8468 <arm_gic_mask+0xf8>
    8448:	e3a03040 	mov	r3, #64	; 0x40
    844c:	e3a0e000 	mov	lr, #0
    8450:	e5cde007 	strb	lr, [sp, #7]
    8454:	eb001809 	bl	e480 <rt_kprintf>
    8458:	e5dd1007 	ldrb	r1, [sp, #7]
    845c:	e3510000 	cmp	r1, #0
    8460:	0afffffc 	beq	8458 <arm_gic_mask+0xe8>
    8464:	eaffffd4 	b	83bc <arm_gic_mask+0x4c>
    8468:	0002b3f0 	strdeq	fp, [r2], -r0

0000846c <arm_gic_umask>:
    846c:	e92d41f0 	push	{r4, r5, r6, r7, r8, lr}
    8470:	e1a04fc1 	asr	r4, r1, #31
    8474:	e2506000 	subs	r6, r0, #0
    8478:	e1a05001 	mov	r5, r1
    847c:	e1a00da4 	lsr	r0, r4, #27
    8480:	e3a08001 	mov	r8, #1
    8484:	e0812000 	add	r2, r1, r0
    8488:	e24dd008 	sub	sp, sp, #8
    848c:	e202101f 	and	r1, r2, #31
    8490:	e0603001 	rsb	r3, r0, r1
    8494:	e1a08318 	lsl	r8, r8, r3
    8498:	1a000011 	bne	84e4 <arm_gic_umask+0x78>
    849c:	e1a07086 	lsl	r7, r6, #1
    84a0:	e30e4108 	movw	r4, #57608	; 0xe108
    84a4:	e0870006 	add	r0, r7, r6
    84a8:	e3404002 	movt	r4, #2
    84ac:	e7943100 	ldr	r3, [r4, r0, lsl #2]
    84b0:	e0555003 	subs	r5, r5, r3
    84b4:	4a00001d 	bmi	8530 <arm_gic_umask+0xc4>
    84b8:	e0876006 	add	r6, r7, r6
    84bc:	e285301f 	add	r3, r5, #31
    84c0:	e3550000 	cmp	r5, #0
    84c4:	e0844106 	add	r4, r4, r6, lsl #2
    84c8:	b1a05003 	movlt	r5, r3
    84cc:	e594c004 	ldr	ip, [r4, #4]
    84d0:	e1a052c5 	asr	r5, r5, #5
    84d4:	e28c2c01 	add	r2, ip, #256	; 0x100
    84d8:	e7828105 	str	r8, [r2, r5, lsl #2]
    84dc:	e28dd008 	add	sp, sp, #8
    84e0:	e8bd81f0 	pop	{r4, r5, r6, r7, r8, pc}
    84e4:	e30c082c 	movw	r0, #51244	; 0xc82c
    84e8:	e30c184c 	movw	r1, #51276	; 0xc84c
    84ec:	e3400002 	movt	r0, #2
    84f0:	e3401002 	movt	r1, #2
    84f4:	e59f2068 	ldr	r2, [pc, #104]	; 8564 <arm_gic_umask+0xf8>
    84f8:	e3a03049 	mov	r3, #73	; 0x49
    84fc:	e3a0c000 	mov	ip, #0
    8500:	e5cdc007 	strb	ip, [sp, #7]
    8504:	eb0017dd 	bl	e480 <rt_kprintf>
    8508:	e5dd7007 	ldrb	r7, [sp, #7]
    850c:	e3570000 	cmp	r7, #0
    8510:	0afffffc 	beq	8508 <arm_gic_umask+0x9c>
    8514:	e1a07086 	lsl	r7, r6, #1
    8518:	e30e4108 	movw	r4, #57608	; 0xe108
    851c:	e0870006 	add	r0, r7, r6
    8520:	e3404002 	movt	r4, #2
    8524:	e7943100 	ldr	r3, [r4, r0, lsl #2]
    8528:	e0555003 	subs	r5, r5, r3
    852c:	5affffe1 	bpl	84b8 <arm_gic_umask+0x4c>
    8530:	e30c082c 	movw	r0, #51244	; 0xc82c
    8534:	e30c1864 	movw	r1, #51300	; 0xc864
    8538:	e3400002 	movt	r0, #2
    853c:	e3401002 	movt	r1, #2
    8540:	e59f201c 	ldr	r2, [pc, #28]	; 8564 <arm_gic_umask+0xf8>
    8544:	e3a0304c 	mov	r3, #76	; 0x4c
    8548:	e3a0e000 	mov	lr, #0
    854c:	e5cde007 	strb	lr, [sp, #7]
    8550:	eb0017ca 	bl	e480 <rt_kprintf>
    8554:	e5dd1007 	ldrb	r1, [sp, #7]
    8558:	e3510000 	cmp	r1, #0
    855c:	0afffffc 	beq	8554 <arm_gic_umask+0xe8>
    8560:	eaffffd4 	b	84b8 <arm_gic_umask+0x4c>
    8564:	0002b400 	andeq	fp, r2, r0, lsl #8

00008568 <arm_gic_dist_init>:
    8568:	e92d4070 	push	{r4, r5, r6, lr}
    856c:	e2505000 	subs	r5, r0, #0
    8570:	e24dd008 	sub	sp, sp, #8
    8574:	e1a04001 	mov	r4, r1
    8578:	e1a06002 	mov	r6, r2
    857c:	1a000080 	bne	8784 <arm_gic_dist_init+0x21c>
    8580:	e3a02000 	mov	r2, #0
    8584:	e5842000 	str	r2, [r4]
    8588:	e5943004 	ldr	r3, [r4, #4]
    858c:	e0855085 	add	r5, r5, r5, lsl #1
    8590:	e30e2108 	movw	r2, #57608	; 0xe108
    8594:	e3402002 	movt	r2, #2
    8598:	e203c01f 	and	ip, r3, #31
    859c:	e1a05105 	lsl	r5, r5, #2
    85a0:	e28c0001 	add	r0, ip, #1
    85a4:	e0821005 	add	r1, r2, r5
    85a8:	e2466001 	sub	r6, r6, #1
    85ac:	e1a03280 	lsl	r3, r0, #5
    85b0:	e3c6601f 	bic	r6, r6, #31
    85b4:	e3530fff 	cmp	r3, #1020	; 0x3fc
    85b8:	e5814004 	str	r4, [r1, #4]
    85bc:	e7826005 	str	r6, [r2, r5]
    85c0:	9a00006a 	bls	8770 <arm_gic_dist_init+0x208>
    85c4:	e3a03060 	mov	r3, #96	; 0x60
    85c8:	e284cb03 	add	ip, r4, #3072	; 0xc00
    85cc:	e3a02030 	mov	r2, #48	; 0x30
    85d0:	e1520003 	cmp	r2, r3
    85d4:	e3a00000 	mov	r0, #0
    85d8:	e58c0008 	str	r0, [ip, #8]
    85dc:	2a00000e 	bcs	861c <arm_gic_dist_init+0xb4>
    85e0:	e3a01001 	mov	r1, #1
    85e4:	e3510000 	cmp	r1, #0
    85e8:	0a000003 	beq	85fc <arm_gic_dist_init+0x94>
    85ec:	e3a02040 	mov	r2, #64	; 0x40
    85f0:	e1520003 	cmp	r2, r3
    85f4:	e58c000c 	str	r0, [ip, #12]
    85f8:	2a000007 	bcs	861c <arm_gic_dist_init+0xb4>
    85fc:	e2821010 	add	r1, r2, #16
    8600:	e1a05222 	lsr	r5, r2, #4
    8604:	e2822020 	add	r2, r2, #32
    8608:	e1a01221 	lsr	r1, r1, #4
    860c:	e1520003 	cmp	r2, r3
    8610:	e78c0105 	str	r0, [ip, r5, lsl #2]
    8614:	e78c0101 	str	r0, [ip, r1, lsl #2]
    8618:	3afffff7 	bcc	85fc <arm_gic_dist_init+0x94>
    861c:	e3a02024 	mov	r2, #36	; 0x24
    8620:	e1520003 	cmp	r2, r3
    8624:	e3000101 	movw	r0, #257	; 0x101
    8628:	e284cb02 	add	ip, r4, #2048	; 0x800
    862c:	e7df0810 	bfi	r0, r0, #16, #16
    8630:	e5840820 	str	r0, [r4, #2080]	; 0x820
    8634:	2a000015 	bcs	8690 <arm_gic_dist_init+0x128>
    8638:	e3a01001 	mov	r1, #1
    863c:	e3510000 	cmp	r1, #0
    8640:	0a000006 	beq	8660 <arm_gic_dist_init+0xf8>
    8644:	e082000c 	add	r0, r2, ip
    8648:	e3a02028 	mov	r2, #40	; 0x28
    864c:	e1520003 	cmp	r2, r3
    8650:	e2811c01 	add	r1, r1, #256	; 0x100
    8654:	e7df1811 	bfi	r1, r1, #16, #16
    8658:	e5801000 	str	r1, [r0]
    865c:	2a00000b 	bcs	8690 <arm_gic_dist_init+0x128>
    8660:	e2825004 	add	r5, r2, #4
    8664:	e1a06122 	lsr	r6, r2, #2
    8668:	e2822008 	add	r2, r2, #8
    866c:	e3000101 	movw	r0, #257	; 0x101
    8670:	e1a05125 	lsr	r5, r5, #2
    8674:	e1520003 	cmp	r2, r3
    8678:	e7df0810 	bfi	r0, r0, #16, #16
    867c:	e3001101 	movw	r1, #257	; 0x101
    8680:	e78c0106 	str	r0, [ip, r6, lsl #2]
    8684:	e7df1811 	bfi	r1, r1, #16, #16
    8688:	e78c1105 	str	r1, [ip, r5, lsl #2]
    868c:	3afffff3 	bcc	8660 <arm_gic_dist_init+0xf8>
    8690:	e3a02004 	mov	r2, #4
    8694:	e1520003 	cmp	r2, r3
    8698:	e1a0c004 	mov	ip, r4
    869c:	e30a00a0 	movw	r0, #41120	; 0xa0a0
    86a0:	e7df0810 	bfi	r0, r0, #16, #16
    86a4:	e5ac0400 	str	r0, [ip, #1024]!	; 0x400
    86a8:	2a000015 	bcs	8704 <arm_gic_dist_init+0x19c>
    86ac:	e3a01001 	mov	r1, #1
    86b0:	e3510000 	cmp	r1, #0
    86b4:	0a000006 	beq	86d4 <arm_gic_dist_init+0x16c>
    86b8:	e082000c 	add	r0, r2, ip
    86bc:	e3a02008 	mov	r2, #8
    86c0:	e1520003 	cmp	r2, r3
    86c4:	e30a10a0 	movw	r1, #41120	; 0xa0a0
    86c8:	e7df1811 	bfi	r1, r1, #16, #16
    86cc:	e5801000 	str	r1, [r0]
    86d0:	2a00000b 	bcs	8704 <arm_gic_dist_init+0x19c>
    86d4:	e2825004 	add	r5, r2, #4
    86d8:	e1a06122 	lsr	r6, r2, #2
    86dc:	e2822008 	add	r2, r2, #8
    86e0:	e30a00a0 	movw	r0, #41120	; 0xa0a0
    86e4:	e1a05125 	lsr	r5, r5, #2
    86e8:	e1520003 	cmp	r2, r3
    86ec:	e7df0810 	bfi	r0, r0, #16, #16
    86f0:	e30a10a0 	movw	r1, #41120	; 0xa0a0
    86f4:	e78c0106 	str	r0, [ip, r6, lsl #2]
    86f8:	e7df1811 	bfi	r1, r1, #16, #16
    86fc:	e78c1105 	str	r1, [ip, r5, lsl #2]
    8700:	3afffff3 	bcc	86d4 <arm_gic_dist_init+0x16c>
    8704:	e3a02020 	mov	r2, #32
    8708:	e1520003 	cmp	r2, r3
    870c:	e1a00004 	mov	r0, r4
    8710:	e2431001 	sub	r1, r3, #1
    8714:	e3e0c000 	mvn	ip, #0
    8718:	e7e012d1 	ubfx	r1, r1, #5, #1
    871c:	e5a0c180 	str	ip, [r0, #384]!	; 0x180
    8720:	2a00000d 	bcs	875c <arm_gic_dist_init+0x1f4>
    8724:	e3510000 	cmp	r1, #0
    8728:	0a000003 	beq	873c <arm_gic_dist_init+0x1d4>
    872c:	e3a02040 	mov	r2, #64	; 0x40
    8730:	e1520003 	cmp	r2, r3
    8734:	e580c004 	str	ip, [r0, #4]
    8738:	2a000007 	bcs	875c <arm_gic_dist_init+0x1f4>
    873c:	e2821020 	add	r1, r2, #32
    8740:	e1a052a2 	lsr	r5, r2, #5
    8744:	e2822040 	add	r2, r2, #64	; 0x40
    8748:	e1a012a1 	lsr	r1, r1, #5
    874c:	e1520003 	cmp	r2, r3
    8750:	e780c105 	str	ip, [r0, r5, lsl #2]
    8754:	e780c101 	str	ip, [r0, r1, lsl #2]
    8758:	3afffff7 	bcc	873c <arm_gic_dist_init+0x1d4>
    875c:	e3a0c001 	mov	ip, #1
    8760:	e3a00000 	mov	r0, #0
    8764:	e584c000 	str	ip, [r4]
    8768:	e28dd008 	add	sp, sp, #8
    876c:	e8bd8070 	pop	{r4, r5, r6, pc}
    8770:	e3530060 	cmp	r3, #96	; 0x60
    8774:	23a03060 	movcs	r3, #96	; 0x60
    8778:	e3530020 	cmp	r3, #32
    877c:	1affff91 	bne	85c8 <arm_gic_dist_init+0x60>
    8780:	eaffffc2 	b	8690 <arm_gic_dist_init+0x128>
    8784:	e30c082c 	movw	r0, #51244	; 0xc82c
    8788:	e30c184c 	movw	r1, #51276	; 0xc84c
    878c:	e3400002 	movt	r0, #2
    8790:	e3401002 	movt	r1, #2
    8794:	e59f201c 	ldr	r2, [pc, #28]	; 87b8 <arm_gic_dist_init+0x250>
    8798:	e3a03056 	mov	r3, #86	; 0x56
    879c:	e3a0c000 	mov	ip, #0
    87a0:	e5cdc007 	strb	ip, [sp, #7]
    87a4:	eb001735 	bl	e480 <rt_kprintf>
    87a8:	e5dd3007 	ldrb	r3, [sp, #7]
    87ac:	e3530000 	cmp	r3, #0
    87b0:	0afffffc 	beq	87a8 <arm_gic_dist_init+0x240>
    87b4:	eaffff71 	b	8580 <arm_gic_dist_init+0x18>
    87b8:	0002b410 	andeq	fp, r2, r0, lsl r4

000087bc <arm_gic_cpu_init>:
    87bc:	e92d4030 	push	{r4, r5, lr}
    87c0:	e2505000 	subs	r5, r0, #0
    87c4:	e24dd00c 	sub	sp, sp, #12
    87c8:	e1a04001 	mov	r4, r1
    87cc:	1a00000b 	bne	8800 <arm_gic_cpu_init+0x44>
    87d0:	e0855085 	add	r5, r5, r5, lsl #1
    87d4:	e30e2108 	movw	r2, #57608	; 0xe108
    87d8:	e3402002 	movt	r2, #2
    87dc:	e3a000f0 	mov	r0, #240	; 0xf0
    87e0:	e0825105 	add	r5, r2, r5, lsl #2
    87e4:	e5840004 	str	r0, [r4, #4]
    87e8:	e3a01001 	mov	r1, #1
    87ec:	e3a00000 	mov	r0, #0
    87f0:	e5854008 	str	r4, [r5, #8]
    87f4:	e5841000 	str	r1, [r4]
    87f8:	e28dd00c 	add	sp, sp, #12
    87fc:	e8bd8030 	pop	{r4, r5, pc}
    8800:	e30c082c 	movw	r0, #51244	; 0xc82c
    8804:	e30c184c 	movw	r1, #51276	; 0xc84c
    8808:	e3400002 	movt	r0, #2
    880c:	e3401002 	movt	r1, #2
    8810:	e59f201c 	ldr	r2, [pc, #28]	; 8834 <arm_gic_cpu_init+0x78>
    8814:	e3a03083 	mov	r3, #131	; 0x83
    8818:	e3a0c000 	mov	ip, #0
    881c:	e5cdc007 	strb	ip, [sp, #7]
    8820:	eb001716 	bl	e480 <rt_kprintf>
    8824:	e5dd3007 	ldrb	r3, [sp, #7]
    8828:	e3530000 	cmp	r3, #0
    882c:	0afffffc 	beq	8824 <arm_gic_cpu_init+0x68>
    8830:	eaffffe6 	b	87d0 <arm_gic_cpu_init+0x14>
    8834:	0002b424 	andeq	fp, r2, r4, lsr #8

00008838 <rt_hw_interrupt_handle>:
    8838:	e1a01000 	mov	r1, r0
    883c:	e30c0870 	movw	r0, #51312	; 0xc870
    8840:	e3400002 	movt	r0, #2
    8844:	ea00170d 	b	e480 <rt_kprintf>

00008848 <rt_hw_vector_init>:
    8848:	e3081000 	movw	r1, #32768	; 0x8000
    884c:	e3a00000 	mov	r0, #0
    8850:	e3401000 	movt	r1, #0
    8854:	e3a02040 	mov	r2, #64	; 0x40
    8858:	ea00130c 	b	d490 <rt_memcpy>

0000885c <rt_hw_interrupt_init>:
    885c:	e92d4008 	push	{r3, lr}
    8860:	ebfffff8 	bl	8848 <rt_hw_vector_init>
    8864:	e3a01000 	mov	r1, #0
    8868:	e3a02d1e 	mov	r2, #1920	; 0x780
    886c:	e30f0664 	movw	r0, #63076	; 0xf664
    8870:	e3400002 	movt	r0, #2
    8874:	eb00129e 	bl	d2f4 <rt_memset>
    8878:	e30f1664 	movw	r1, #63076	; 0xf664
    887c:	e3082838 	movw	r2, #34872	; 0x8838
    8880:	e3401002 	movt	r1, #2
    8884:	e3402000 	movt	r2, #0
    8888:	e3a03000 	mov	r3, #0
    888c:	e7812003 	str	r2, [r1, r3]
    8890:	e2830014 	add	r0, r3, #20
    8894:	e2833028 	add	r3, r3, #40	; 0x28
    8898:	e3530d1e 	cmp	r3, #1920	; 0x780
    889c:	e7812000 	str	r2, [r1, r0]
    88a0:	1afffff9 	bne	888c <rt_hw_interrupt_init+0x30>
    88a4:	e3a02020 	mov	r2, #32
    88a8:	e3a00000 	mov	r0, #0
    88ac:	e3a01a01 	mov	r1, #4096	; 0x1000
    88b0:	e3411e00 	movt	r1, #7680	; 0x1e00
    88b4:	ebffff2b 	bl	8568 <arm_gic_dist_init>
    88b8:	e3a00000 	mov	r0, #0
    88bc:	e3a01c01 	mov	r1, #256	; 0x100
    88c0:	e3411e00 	movt	r1, #7680	; 0x1e00
    88c4:	ebffffbc 	bl	87bc <arm_gic_cpu_init>
    88c8:	e30fcde4 	movw	ip, #64996	; 0xfde4
    88cc:	e30f065c 	movw	r0, #63068	; 0xf65c
    88d0:	e340c002 	movt	ip, #2
    88d4:	e3400002 	movt	r0, #2
    88d8:	e30f1658 	movw	r1, #63064	; 0xf658
    88dc:	e30f2660 	movw	r2, #63072	; 0xf660
    88e0:	e3401002 	movt	r1, #2
    88e4:	e3402002 	movt	r2, #2
    88e8:	e3a03000 	mov	r3, #0
    88ec:	e5cc3000 	strb	r3, [ip]
    88f0:	e5803000 	str	r3, [r0]
    88f4:	e5813000 	str	r3, [r1]
    88f8:	e5823000 	str	r3, [r2]
    88fc:	e8bd8008 	pop	{r3, pc}

00008900 <rt_hw_interrupt_mask>:
    8900:	e1a01000 	mov	r1, r0
    8904:	e3a00000 	mov	r0, #0
    8908:	eafffe98 	b	8370 <arm_gic_mask>

0000890c <rt_hw_interrupt_umask>:
    890c:	e1a01000 	mov	r1, r0
    8910:	e3a00000 	mov	r0, #0
    8914:	eafffed4 	b	846c <arm_gic_umask>

00008918 <rt_hw_interrupt_install>:
    8918:	e350005f 	cmp	r0, #95	; 0x5f
    891c:	e1a0c000 	mov	ip, r0
    8920:	e92d47f0 	push	{r4, r5, r6, r7, r8, r9, sl, lr}
    8924:	e1a06001 	mov	r6, r1
    8928:	e1a09002 	mov	r9, r2
    892c:	e1a07003 	mov	r7, r3
    8930:	c3a08000 	movgt	r8, #0
    8934:	ca000014 	bgt	898c <rt_hw_interrupt_install+0x74>
    8938:	e0805100 	add	r5, r0, r0, lsl #2
    893c:	e30f4664 	movw	r4, #63076	; 0xf664
    8940:	e3404002 	movt	r4, #2
    8944:	e1a01003 	mov	r1, r3
    8948:	e1a05105 	lsl	r5, r5, #2
    894c:	e30c0894 	movw	r0, #51348	; 0xc894
    8950:	e1a0200c 	mov	r2, ip
    8954:	e3400002 	movt	r0, #2
    8958:	e1a03006 	mov	r3, r6
    895c:	e7948005 	ldr	r8, [r4, r5]
    8960:	eb0016c6 	bl	e480 <rt_kprintf>
    8964:	e3560000 	cmp	r6, #0
    8968:	e084a005 	add	sl, r4, r5
    896c:	0a000006 	beq	898c <rt_hw_interrupt_install+0x74>
    8970:	e2850008 	add	r0, r5, #8
    8974:	e1a01007 	mov	r1, r7
    8978:	e0840000 	add	r0, r4, r0
    897c:	e3a02006 	mov	r2, #6
    8980:	eb00140d 	bl	d9bc <rt_strncpy>
    8984:	e7846005 	str	r6, [r4, r5]
    8988:	e58a9004 	str	r9, [sl, #4]
    898c:	e1a00008 	mov	r0, r8
    8990:	e8bd87f0 	pop	{r4, r5, r6, r7, r8, r9, sl, pc}

00008994 <rt_hw_stack_init>:
    8994:	e3100001 	tst	r0, #1
    8998:	e3a0c000 	mov	ip, #0
    899c:	e5023004 	str	r3, [r2, #-4]
    89a0:	e5820000 	str	r0, [r2]
    89a4:	13a03033 	movne	r3, #51	; 0x33
    89a8:	03a03013 	moveq	r3, #19
    89ac:	e502c008 	str	ip, [r2, #-8]
    89b0:	e502c00c 	str	ip, [r2, #-12]
    89b4:	e242003c 	sub	r0, r2, #60	; 0x3c
    89b8:	e502c010 	str	ip, [r2, #-16]
    89bc:	e502c014 	str	ip, [r2, #-20]	; 0xffffffec
    89c0:	e502c018 	str	ip, [r2, #-24]	; 0xffffffe8
    89c4:	e502c01c 	str	ip, [r2, #-28]	; 0xffffffe4
    89c8:	e502c020 	str	ip, [r2, #-32]	; 0xffffffe0
    89cc:	e502c024 	str	ip, [r2, #-36]	; 0xffffffdc
    89d0:	e502c028 	str	ip, [r2, #-40]	; 0xffffffd8
    89d4:	e502c02c 	str	ip, [r2, #-44]	; 0xffffffd4
    89d8:	e502c030 	str	ip, [r2, #-48]	; 0xffffffd0
    89dc:	e502c034 	str	ip, [r2, #-52]	; 0xffffffcc
    89e0:	e5021038 	str	r1, [r2, #-56]	; 0xffffffc8
    89e4:	1502303c 	strne	r3, [r2, #-60]	; 0xffffffc4
    89e8:	0502303c 	streq	r3, [r2, #-60]	; 0xffffffc4
    89ec:	e12fff1e 	bx	lr

000089f0 <rt_hw_show_register>:
    89f0:	e92d4010 	push	{r4, lr}
    89f4:	e1a04000 	mov	r4, r0
    89f8:	e24dd008 	sub	sp, sp, #8
    89fc:	e30c08bc 	movw	r0, #51388	; 0xc8bc
    8a00:	e3400002 	movt	r0, #2
    8a04:	eb00169d 	bl	e480 <rt_kprintf>
    8a08:	e594c00c 	ldr	ip, [r4, #12]
    8a0c:	e8940006 	ldm	r4, {r1, r2}
    8a10:	e30c08c8 	movw	r0, #51400	; 0xc8c8
    8a14:	e5943008 	ldr	r3, [r4, #8]
    8a18:	e3400002 	movt	r0, #2
    8a1c:	e58dc000 	str	ip, [sp]
    8a20:	eb001696 	bl	e480 <rt_kprintf>
    8a24:	e594c01c 	ldr	ip, [r4, #28]
    8a28:	e30c08f8 	movw	r0, #51448	; 0xc8f8
    8a2c:	e5941010 	ldr	r1, [r4, #16]
    8a30:	e3400002 	movt	r0, #2
    8a34:	e5942014 	ldr	r2, [r4, #20]
    8a38:	e5943018 	ldr	r3, [r4, #24]
    8a3c:	e58dc000 	str	ip, [sp]
    8a40:	eb00168e 	bl	e480 <rt_kprintf>
    8a44:	e5943028 	ldr	r3, [r4, #40]	; 0x28
    8a48:	e30c0928 	movw	r0, #51496	; 0xc928
    8a4c:	e5941020 	ldr	r1, [r4, #32]
    8a50:	e3400002 	movt	r0, #2
    8a54:	e5942024 	ldr	r2, [r4, #36]	; 0x24
    8a58:	eb001688 	bl	e480 <rt_kprintf>
    8a5c:	e594102c 	ldr	r1, [r4, #44]	; 0x2c
    8a60:	e5942030 	ldr	r2, [r4, #48]	; 0x30
    8a64:	e30c094c 	movw	r0, #51532	; 0xc94c
    8a68:	e3400002 	movt	r0, #2
    8a6c:	eb001683 	bl	e480 <rt_kprintf>
    8a70:	e5941034 	ldr	r1, [r4, #52]	; 0x34
    8a74:	e5942038 	ldr	r2, [r4, #56]	; 0x38
    8a78:	e30c0964 	movw	r0, #51556	; 0xc964
    8a7c:	e594303c 	ldr	r3, [r4, #60]	; 0x3c
    8a80:	e3400002 	movt	r0, #2
    8a84:	eb00167d 	bl	e480 <rt_kprintf>
    8a88:	e30c0988 	movw	r0, #51592	; 0xc988
    8a8c:	e5941040 	ldr	r1, [r4, #64]	; 0x40
    8a90:	e3400002 	movt	r0, #2
    8a94:	e28dd008 	add	sp, sp, #8
    8a98:	e8bd4010 	pop	{r4, lr}
    8a9c:	ea001677 	b	e480 <rt_kprintf>

00008aa0 <rt_hw_trap_udef>:
    8aa0:	e92d4008 	push	{r3, lr}
    8aa4:	ebffffd1 	bl	89f0 <rt_hw_show_register>
    8aa8:	e30c0998 	movw	r0, #51608	; 0xc998
    8aac:	e3400002 	movt	r0, #2
    8ab0:	eb001672 	bl	e480 <rt_kprintf>
    8ab4:	e30f3ef8 	movw	r3, #65272	; 0xfef8
    8ab8:	e3403002 	movt	r3, #2
    8abc:	e3a01006 	mov	r1, #6
    8ac0:	e30c09b0 	movw	r0, #51632	; 0xc9b0
    8ac4:	e3400002 	movt	r0, #2
    8ac8:	e5932000 	ldr	r2, [r3]
    8acc:	eb00166b 	bl	e480 <rt_kprintf>
    8ad0:	eb0029be 	bl	131d0 <list_thread>
    8ad4:	e8bd4008 	pop	{r3, lr}
    8ad8:	eafffdac 	b	8190 <rt_hw_cpu_shutdown>

00008adc <rt_hw_trap_swi>:
    8adc:	e92d4008 	push	{r3, lr}
    8ae0:	ebffffc2 	bl	89f0 <rt_hw_show_register>
    8ae4:	e30c09c4 	movw	r0, #51652	; 0xc9c4
    8ae8:	e3400002 	movt	r0, #2
    8aec:	eb001663 	bl	e480 <rt_kprintf>
    8af0:	e8bd4008 	pop	{r3, lr}
    8af4:	eafffda5 	b	8190 <rt_hw_cpu_shutdown>

00008af8 <rt_hw_trap_pabt>:
    8af8:	e92d4008 	push	{r3, lr}
    8afc:	ebffffbb 	bl	89f0 <rt_hw_show_register>
    8b00:	e30c09d8 	movw	r0, #51672	; 0xc9d8
    8b04:	e3400002 	movt	r0, #2
    8b08:	eb00165c 	bl	e480 <rt_kprintf>
    8b0c:	e30f3ef8 	movw	r3, #65272	; 0xfef8
    8b10:	e3403002 	movt	r3, #2
    8b14:	e3a01006 	mov	r1, #6
    8b18:	e30c09b0 	movw	r0, #51632	; 0xc9b0
    8b1c:	e3400002 	movt	r0, #2
    8b20:	e5932000 	ldr	r2, [r3]
    8b24:	eb001655 	bl	e480 <rt_kprintf>
    8b28:	eb0029a8 	bl	131d0 <list_thread>
    8b2c:	e8bd4008 	pop	{r3, lr}
    8b30:	eafffd96 	b	8190 <rt_hw_cpu_shutdown>

00008b34 <rt_hw_trap_dabt>:
    8b34:	e92d4008 	push	{r3, lr}
    8b38:	ebffffac 	bl	89f0 <rt_hw_show_register>
    8b3c:	e30c09e8 	movw	r0, #51688	; 0xc9e8
    8b40:	e3400002 	movt	r0, #2
    8b44:	eb00164d 	bl	e480 <rt_kprintf>
    8b48:	e30f3ef8 	movw	r3, #65272	; 0xfef8
    8b4c:	e3403002 	movt	r3, #2
    8b50:	e3a01006 	mov	r1, #6
    8b54:	e30c09b0 	movw	r0, #51632	; 0xc9b0
    8b58:	e3400002 	movt	r0, #2
    8b5c:	e5932000 	ldr	r2, [r3]
    8b60:	eb001646 	bl	e480 <rt_kprintf>
    8b64:	eb002999 	bl	131d0 <list_thread>
    8b68:	e8bd4008 	pop	{r3, lr}
    8b6c:	eafffd87 	b	8190 <rt_hw_cpu_shutdown>

00008b70 <rt_hw_trap_irq>:
    8b70:	e92d4010 	push	{r4, lr}
    8b74:	e3a00000 	mov	r0, #0
    8b78:	ebfffd9c 	bl	81f0 <arm_gic_get_active_irq>
    8b7c:	e30fc664 	movw	ip, #63076	; 0xf664
    8b80:	e340c002 	movt	ip, #2
    8b84:	e0803100 	add	r3, r0, r0, lsl #2
    8b88:	e1a04000 	mov	r4, r0
    8b8c:	e1a02103 	lsl	r2, r3, #2
    8b90:	e08c1002 	add	r1, ip, r2
    8b94:	e79c3002 	ldr	r3, [ip, r2]
    8b98:	e5911004 	ldr	r1, [r1, #4]
    8b9c:	e12fff33 	blx	r3
    8ba0:	e3a00000 	mov	r0, #0
    8ba4:	e1a01004 	mov	r1, r4
    8ba8:	e8bd4010 	pop	{r4, lr}
    8bac:	eafffdae 	b	826c <arm_gic_ack>

00008bb0 <rt_hw_trap_fiq>:
    8bb0:	e92d4010 	push	{r4, lr}
    8bb4:	e3a00000 	mov	r0, #0
    8bb8:	ebfffd8c 	bl	81f0 <arm_gic_get_active_irq>
    8bbc:	e30fc664 	movw	ip, #63076	; 0xf664
    8bc0:	e340c002 	movt	ip, #2
    8bc4:	e0803100 	add	r3, r0, r0, lsl #2
    8bc8:	e1a04000 	mov	r4, r0
    8bcc:	e1a02103 	lsl	r2, r3, #2
    8bd0:	e08c1002 	add	r1, ip, r2
    8bd4:	e79c3002 	ldr	r3, [ip, r2]
    8bd8:	e5911004 	ldr	r1, [r1, #4]
    8bdc:	e12fff33 	blx	r3
    8be0:	e3a00000 	mov	r0, #0
    8be4:	e1a01004 	mov	r1, r4
    8be8:	e8bd4010 	pop	{r4, lr}
    8bec:	eafffd9e 	b	826c <arm_gic_ack>

00008bf0 <rt_hw_interrupt_disable>:
    8bf0:	e10f0000 	mrs	r0, CPSR
    8bf4:	e38010c0 	orr	r1, r0, #192	; 0xc0
    8bf8:	e121f001 	msr	CPSR_c, r1
    8bfc:	e12fff1e 	bx	lr

00008c00 <rt_hw_interrupt_enable>:
    8c00:	e129f000 	msr	CPSR_fc, r0
    8c04:	e12fff1e 	bx	lr

00008c08 <rt_hw_wfi>:
    8c08:	e320f003 	wfi
    8c0c:	e12fff1e 	bx	lr

00008c10 <rt_hw_context_switch>:
    8c10:	e92d4000 	push	{lr}
    8c14:	e92d5fff 	push	{r0, r1, r2, r3, r4, r5, r6, r7, r8, r9, sl, fp, ip, lr}
    8c18:	e10f4000 	mrs	r4, CPSR
    8c1c:	e31e0001 	tst	lr, #1
    8c20:	0a000000 	beq	8c28 <_ARM_MODE>
    8c24:	e3844020 	orr	r4, r4, #32

00008c28 <_ARM_MODE>:
    8c28:	e92d0010 	push	{r4}
    8c2c:	e580d000 	str	sp, [r0]
    8c30:	e591d000 	ldr	sp, [r1]
    8c34:	e8bd0010 	pop	{r4}
    8c38:	e16ff004 	msr	SPSR_fsxc, r4
    8c3c:	e8fddfff 	ldm	sp!, {r0, r1, r2, r3, r4, r5, r6, r7, r8, r9, sl, fp, ip, lr, pc}^

00008c40 <rt_hw_context_switch_to>:
    8c40:	e590d000 	ldr	sp, [r0]
    8c44:	e8bd0010 	pop	{r4}
    8c48:	e16ff004 	msr	SPSR_fsxc, r4
    8c4c:	e3c44020 	bic	r4, r4, #32
    8c50:	e12ff004 	msr	CPSR_fsxc, r4
    8c54:	e8fddfff 	ldm	sp!, {r0, r1, r2, r3, r4, r5, r6, r7, r8, r9, sl, fp, ip, lr, pc}^

00008c58 <rt_hw_context_switch_interrupt>:
    8c58:	e59f2024 	ldr	r2, [pc, #36]	; 8c84 <_reswitch+0xc>
    8c5c:	e5923000 	ldr	r3, [r2]
    8c60:	e3530001 	cmp	r3, #1
    8c64:	0a000003 	beq	8c78 <_reswitch>
    8c68:	e3a03001 	mov	r3, #1
    8c6c:	e5823000 	str	r3, [r2]
    8c70:	e59f2010 	ldr	r2, [pc, #16]	; 8c88 <_reswitch+0x10>
    8c74:	e5820000 	str	r0, [r2]

00008c78 <_reswitch>:
    8c78:	e59f200c 	ldr	r2, [pc, #12]	; 8c8c <_reswitch+0x14>
    8c7c:	e5821000 	str	r1, [r2]
    8c80:	e12fff1e 	bx	lr
    8c84:	0002f660 	andeq	pc, r2, r0, ror #12
    8c88:	0002f65c 	andeq	pc, r2, ip, asr r6	; <UNPREDICTABLE>
    8c8c:	0002f658 	andeq	pc, r2, r8, asr r6	; <UNPREDICTABLE>
	...

00008ca0 <stack_start>:
	...

000094a0 <_reset>:
    94a0:	e10f0000 	mrs	r0, CPSR
    94a4:	e3c0001f 	bic	r0, r0, #31
    94a8:	e3800013 	orr	r0, r0, #19
    94ac:	e121f000 	msr	CPSR_c, r0
    94b0:	eb000011 	bl	94fc <stack_setup>
    94b4:	e3a00000 	mov	r0, #0
    94b8:	e59f121c 	ldr	r1, [pc, #540]	; 96dc <rt_hw_context_switch_interrupt_do+0x64>
    94bc:	e59f221c 	ldr	r2, [pc, #540]	; 96e0 <rt_hw_context_switch_interrupt_do+0x68>

000094c0 <bss_loop>:
    94c0:	e1510002 	cmp	r1, r2
    94c4:	34810004 	strcc	r0, [r1], #4
    94c8:	3afffffc 	bcc	94c0 <bss_loop>
    94cc:	e59f0210 	ldr	r0, [pc, #528]	; 96e4 <rt_hw_context_switch_interrupt_do+0x6c>
    94d0:	e59f1210 	ldr	r1, [pc, #528]	; 96e8 <rt_hw_context_switch_interrupt_do+0x70>

000094d4 <ctor_loop>:
    94d4:	e1500001 	cmp	r0, r1
    94d8:	0a000005 	beq	94f4 <ctor_end>
    94dc:	e4902004 	ldr	r2, [r0], #4
    94e0:	e92d0003 	push	{r0, r1}
    94e4:	e1a0e00f 	mov	lr, pc
    94e8:	e12fff12 	bx	r2
    94ec:	e8bd0003 	pop	{r0, r1}
    94f0:	eafffff7 	b	94d4 <ctor_loop>

000094f4 <ctor_end>:
    94f4:	e51ff004 	ldr	pc, [pc, #-4]	; 94f8 <_rtthread_startup>

000094f8 <_rtthread_startup>:
    94f8:	00008150 	andeq	r8, r0, r0, asr r1

000094fc <stack_setup>:
    94fc:	e59f01e8 	ldr	r0, [pc, #488]	; 96ec <rt_hw_context_switch_interrupt_do+0x74>
    9500:	e321f0db 	msr	CPSR_c, #219	; 0xdb
    9504:	e1a0d000 	mov	sp, r0
    9508:	e2400000 	sub	r0, r0, #0
    950c:	e321f0d7 	msr	CPSR_c, #215	; 0xd7
    9510:	e1a0d000 	mov	sp, r0
    9514:	e2400000 	sub	r0, r0, #0
    9518:	e321f0d1 	msr	CPSR_c, #209	; 0xd1
    951c:	e1a0d000 	mov	sp, r0
    9520:	e2400000 	sub	r0, r0, #0
    9524:	e321f0d2 	msr	CPSR_c, #210	; 0xd2
    9528:	e1a0d000 	mov	sp, r0
    952c:	e2400c01 	sub	r0, r0, #256	; 0x100
    9530:	e321f0d3 	msr	CPSR_c, #211	; 0xd3
    9534:	e1a0d000 	mov	sp, r0
    9538:	e2400c01 	sub	r0, r0, #256	; 0x100
    953c:	e1a0d000 	mov	sp, r0
    9540:	e24dac01 	sub	sl, sp, #256	; 0x100
    9544:	e12fff1e 	bx	lr
    9548:	e320f000 	nop	{0}
    954c:	e320f000 	nop	{0}
    9550:	e320f000 	nop	{0}
    9554:	e320f000 	nop	{0}
    9558:	e320f000 	nop	{0}
    955c:	e320f000 	nop	{0}

00009560 <vector_undef>:
    9560:	e24dd048 	sub	sp, sp, #72	; 0x48
    9564:	e88d1fff 	stm	sp, {r0, r1, r2, r3, r4, r5, r6, r7, r8, r9, sl, fp, ip}
    9568:	e28d803c 	add	r8, sp, #60	; 0x3c
    956c:	e9086000 	stmdb	r8, {sp, lr}
    9570:	e588e000 	str	lr, [r8]
    9574:	e14f6000 	mrs	r6, SPSR
    9578:	e5886004 	str	r6, [r8, #4]
    957c:	e5880008 	str	r0, [r8, #8]
    9580:	e1a0000d 	mov	r0, sp
    9584:	ebfffd45 	bl	8aa0 <rt_hw_trap_udef>
    9588:	e320f000 	nop	{0}
    958c:	e320f000 	nop	{0}
    9590:	e320f000 	nop	{0}
    9594:	e320f000 	nop	{0}
    9598:	e320f000 	nop	{0}
    959c:	e320f000 	nop	{0}

000095a0 <vector_swi>:
    95a0:	ebfffd4d 	bl	8adc <rt_hw_trap_swi>
    95a4:	e320f000 	nop	{0}
    95a8:	e320f000 	nop	{0}
    95ac:	e320f000 	nop	{0}
    95b0:	e320f000 	nop	{0}
    95b4:	e320f000 	nop	{0}
    95b8:	e320f000 	nop	{0}
    95bc:	e320f000 	nop	{0}

000095c0 <vector_pabt>:
    95c0:	ebfffd4c 	bl	8af8 <rt_hw_trap_pabt>
    95c4:	e320f000 	nop	{0}
    95c8:	e320f000 	nop	{0}
    95cc:	e320f000 	nop	{0}
    95d0:	e320f000 	nop	{0}
    95d4:	e320f000 	nop	{0}
    95d8:	e320f000 	nop	{0}
    95dc:	e320f000 	nop	{0}

000095e0 <vector_dabt>:
    95e0:	e24dd048 	sub	sp, sp, #72	; 0x48
    95e4:	e88d1fff 	stm	sp, {r0, r1, r2, r3, r4, r5, r6, r7, r8, r9, sl, fp, ip}
    95e8:	e28d803c 	add	r8, sp, #60	; 0x3c
    95ec:	e9086000 	stmdb	r8, {sp, lr}
    95f0:	e588e000 	str	lr, [r8]
    95f4:	e14f6000 	mrs	r6, SPSR
    95f8:	e5886004 	str	r6, [r8, #4]
    95fc:	e5880008 	str	r0, [r8, #8]
    9600:	e1a0000d 	mov	r0, sp
    9604:	ebfffd4a 	bl	8b34 <rt_hw_trap_dabt>
    9608:	e320f000 	nop	{0}
    960c:	e320f000 	nop	{0}
    9610:	e320f000 	nop	{0}
    9614:	e320f000 	nop	{0}
    9618:	e320f000 	nop	{0}
    961c:	e320f000 	nop	{0}

00009620 <vector_resv>:
    9620:	eafffffe 	b	9620 <vector_resv>
    9624:	e320f000 	nop	{0}
    9628:	e320f000 	nop	{0}
    962c:	e320f000 	nop	{0}
    9630:	e320f000 	nop	{0}
    9634:	e320f000 	nop	{0}
    9638:	e320f000 	nop	{0}
    963c:	e320f000 	nop	{0}

00009640 <vector_fiq>:
    9640:	e92d40ff 	push	{r0, r1, r2, r3, r4, r5, r6, r7, lr}
    9644:	ebfffd59 	bl	8bb0 <rt_hw_trap_fiq>
    9648:	e8bd40ff 	pop	{r0, r1, r2, r3, r4, r5, r6, r7, lr}
    964c:	e25ef004 	subs	pc, lr, #4

00009650 <vector_irq>:
    9650:	e92d5fff 	push	{r0, r1, r2, r3, r4, r5, r6, r7, r8, r9, sl, fp, ip, lr}
    9654:	eb000e03 	bl	ce68 <rt_interrupt_enter>
    9658:	ebfffd44 	bl	8b70 <rt_hw_trap_irq>
    965c:	eb000e0a 	bl	ce8c <rt_interrupt_leave>
    9660:	e59f0088 	ldr	r0, [pc, #136]	; 96f0 <rt_hw_context_switch_interrupt_do+0x78>
    9664:	e5901000 	ldr	r1, [r0]
    9668:	e3510001 	cmp	r1, #1
    966c:	0a000001 	beq	9678 <rt_hw_context_switch_interrupt_do>
    9670:	e8bd5fff 	pop	{r0, r1, r2, r3, r4, r5, r6, r7, r8, r9, sl, fp, ip, lr}
    9674:	e25ef004 	subs	pc, lr, #4

00009678 <rt_hw_context_switch_interrupt_do>:
    9678:	e3a01000 	mov	r1, #0
    967c:	e5801000 	str	r1, [r0]
    9680:	e8bd5fff 	pop	{r0, r1, r2, r3, r4, r5, r6, r7, r8, r9, sl, fp, ip, lr}
    9684:	e92d000f 	push	{r0, r1, r2, r3}
    9688:	e1a0100d 	mov	r1, sp
    968c:	e28dd010 	add	sp, sp, #16
    9690:	e24e2004 	sub	r2, lr, #4
    9694:	e14f3000 	mrs	r3, SPSR
    9698:	e321f0d3 	msr	CPSR_c, #211	; 0xd3
    969c:	e92d0004 	push	{r2}
    96a0:	e92d5ff0 	push	{r4, r5, r6, r7, r8, r9, sl, fp, ip, lr}
    96a4:	e1a04001 	mov	r4, r1
    96a8:	e1a05003 	mov	r5, r3
    96ac:	e8b4000f 	ldm	r4!, {r0, r1, r2, r3}
    96b0:	e92d000f 	push	{r0, r1, r2, r3}
    96b4:	e92d0020 	push	{r5}
    96b8:	e59f4034 	ldr	r4, [pc, #52]	; 96f4 <rt_hw_context_switch_interrupt_do+0x7c>
    96bc:	e5945000 	ldr	r5, [r4]
    96c0:	e585d000 	str	sp, [r5]
    96c4:	e59f602c 	ldr	r6, [pc, #44]	; 96f8 <rt_hw_context_switch_interrupt_do+0x80>
    96c8:	e5966000 	ldr	r6, [r6]
    96cc:	e596d000 	ldr	sp, [r6]
    96d0:	e8bd0010 	pop	{r4}
    96d4:	e16ff004 	msr	SPSR_fsxc, r4
    96d8:	e8fddfff 	ldm	sp!, {r0, r1, r2, r3, r4, r5, r6, r7, r8, r9, sl, fp, ip, lr, pc}^
    96dc:	0002e108 	andeq	lr, r2, r8, lsl #2
    96e0:	0003046c 	andeq	r0, r3, ip, ror #8
    96e4:	0002db40 	andeq	sp, r2, r0, asr #22
    96e8:	0002db40 	andeq	sp, r2, r0, asr #22
    96ec:	000094a0 	andeq	r9, r0, r0, lsr #9
    96f0:	0002f660 	andeq	pc, r2, r0, ror #12
    96f4:	0002f65c 	andeq	pc, r2, ip, asr r6	; <UNPREDICTABLE>
    96f8:	0002f658 	andeq	pc, r2, r8, asr r6	; <UNPREDICTABLE>
    96fc:	e320f000 	nop	{0}

00009700 <uart_configure>:
    9700:	e3a00000 	mov	r0, #0
    9704:	e12fff1e 	bx	lr

00009708 <rt_hw_uart_init>:
    9708:	e30b3438 	movw	r3, #46136	; 0xb438
    970c:	e3403002 	movt	r3, #2
    9710:	e92d4030 	push	{r4, r5, lr}
    9714:	e30e4114 	movw	r4, #57620	; 0xe114
    9718:	e8930003 	ldm	r3, {r0, r1}
    971c:	e3404002 	movt	r4, #2
    9720:	e24dd00c 	sub	sp, sp, #12
    9724:	e284c040 	add	ip, r4, #64	; 0x40
    9728:	e30d5b40 	movw	r5, #56128	; 0xdb40
    972c:	e3405002 	movt	r5, #2
    9730:	e283e008 	add	lr, r3, #8
    9734:	e88d0003 	stm	sp, {r0, r1}
    9738:	e88c0003 	stm	ip, {r0, r1}
    973c:	e1a03005 	mov	r3, r5
    9740:	e3002103 	movw	r2, #259	; 0x103
    9744:	e1a00004 	mov	r0, r4
    9748:	e30c180c 	movw	r1, #51212	; 0xc80c
    974c:	e3401002 	movt	r1, #2
    9750:	e584e03c 	str	lr, [r4, #60]	; 0x3c
    9754:	eb001f6c 	bl	1150c <rt_hw_serial_register>
    9758:	e5953000 	ldr	r3, [r5]
    975c:	e300c301 	movw	ip, #769	; 0x301
    9760:	e5950004 	ldr	r0, [r5, #4]
    9764:	e1a02004 	mov	r2, r4
    9768:	e30918f4 	movw	r1, #39156	; 0x98f4
    976c:	e3401000 	movt	r1, #0
    9770:	e583c030 	str	ip, [r3, #48]	; 0x30
    9774:	e30c39f4 	movw	r3, #51700	; 0xc9f4
    9778:	e3403002 	movt	r3, #2
    977c:	ebfffc65 	bl	8918 <rt_hw_interrupt_install>
    9780:	e3a00000 	mov	r0, #0
    9784:	e28dd00c 	add	sp, sp, #12
    9788:	e8bd8030 	pop	{r4, r5, pc}

0000978c <uart_getc>:
    978c:	e92d4010 	push	{r4, lr}
    9790:	e2504000 	subs	r4, r0, #0
    9794:	e24dd008 	sub	sp, sp, #8
    9798:	0a000008 	beq	97c0 <uart_getc+0x34>
    979c:	e594c038 	ldr	ip, [r4, #56]	; 0x38
    97a0:	e59c1000 	ldr	r1, [ip]
    97a4:	e5912018 	ldr	r2, [r1, #24]
    97a8:	e3120010 	tst	r2, #16
    97ac:	05910000 	ldreq	r0, [r1]
    97b0:	13e00000 	mvnne	r0, #0
    97b4:	06ef0070 	uxtbeq	r0, r0
    97b8:	e28dd008 	add	sp, sp, #8
    97bc:	e8bd8010 	pop	{r4, pc}
    97c0:	e30c082c 	movw	r0, #51244	; 0xc82c
    97c4:	e30c19fc 	movw	r1, #51708	; 0xc9fc
    97c8:	e3400002 	movt	r0, #2
    97cc:	e3401002 	movt	r1, #2
    97d0:	e59f2018 	ldr	r2, [pc, #24]	; 97f0 <uart_getc+0x64>
    97d4:	e3a0306c 	mov	r3, #108	; 0x6c
    97d8:	e5cd4007 	strb	r4, [sp, #7]
    97dc:	eb001327 	bl	e480 <rt_kprintf>
    97e0:	e5dd3007 	ldrb	r3, [sp, #7]
    97e4:	e3530000 	cmp	r3, #0
    97e8:	0afffffc 	beq	97e0 <uart_getc+0x54>
    97ec:	eaffffea 	b	979c <uart_getc+0x10>
    97f0:	0002b454 	andeq	fp, r2, r4, asr r4

000097f4 <uart_putc>:
    97f4:	e92d4030 	push	{r4, r5, lr}
    97f8:	e2504000 	subs	r4, r0, #0
    97fc:	e24dd00c 	sub	sp, sp, #12
    9800:	e1a05001 	mov	r5, r1
    9804:	0a000009 	beq	9830 <uart_putc+0x3c>
    9808:	e5940038 	ldr	r0, [r4, #56]	; 0x38
    980c:	e5901000 	ldr	r1, [r0]
    9810:	e2812018 	add	r2, r1, #24
    9814:	e592c000 	ldr	ip, [r2]
    9818:	e31c0020 	tst	ip, #32
    981c:	1afffffc 	bne	9814 <uart_putc+0x20>
    9820:	e5815000 	str	r5, [r1]
    9824:	e3a00001 	mov	r0, #1
    9828:	e28dd00c 	add	sp, sp, #12
    982c:	e8bd8030 	pop	{r4, r5, pc}
    9830:	e30c082c 	movw	r0, #51244	; 0xc82c
    9834:	e30c19fc 	movw	r1, #51708	; 0xc9fc
    9838:	e3400002 	movt	r0, #2
    983c:	e3401002 	movt	r1, #2
    9840:	e59f2018 	ldr	r2, [pc, #24]	; 9860 <uart_putc+0x6c>
    9844:	e3a0305e 	mov	r3, #94	; 0x5e
    9848:	e5cd4007 	strb	r4, [sp, #7]
    984c:	eb00130b 	bl	e480 <rt_kprintf>
    9850:	e5dd3007 	ldrb	r3, [sp, #7]
    9854:	e3530000 	cmp	r3, #0
    9858:	0afffffc 	beq	9850 <uart_putc+0x5c>
    985c:	eaffffe9 	b	9808 <uart_putc+0x14>
    9860:	0002b460 	andeq	fp, r2, r0, ror #8

00009864 <uart_control>:
    9864:	e92d4030 	push	{r4, r5, lr}
    9868:	e2505000 	subs	r5, r0, #0
    986c:	e24dd00c 	sub	sp, sp, #12
    9870:	e1a04001 	mov	r4, r1
    9874:	0a000011 	beq	98c0 <uart_control+0x5c>
    9878:	e3540010 	cmp	r4, #16
    987c:	e5953038 	ldr	r3, [r5, #56]	; 0x38
    9880:	0a000007 	beq	98a4 <uart_control+0x40>
    9884:	e3540011 	cmp	r4, #17
    9888:	05930000 	ldreq	r0, [r3]
    988c:	05901038 	ldreq	r1, [r0, #56]	; 0x38
    9890:	03c12010 	biceq	r2, r1, #16
    9894:	05802038 	streq	r2, [r0, #56]	; 0x38
    9898:	e3a00000 	mov	r0, #0
    989c:	e28dd00c 	add	sp, sp, #12
    98a0:	e8bd8030 	pop	{r4, r5, pc}
    98a4:	e593c000 	ldr	ip, [r3]
    98a8:	e5930004 	ldr	r0, [r3, #4]
    98ac:	e59c3038 	ldr	r3, [ip, #56]	; 0x38
    98b0:	e383e010 	orr	lr, r3, #16
    98b4:	e58ce038 	str	lr, [ip, #56]	; 0x38
    98b8:	ebfffc13 	bl	890c <rt_hw_interrupt_umask>
    98bc:	eafffff5 	b	9898 <uart_control+0x34>
    98c0:	e30c082c 	movw	r0, #51244	; 0xc82c
    98c4:	e30c19fc 	movw	r1, #51708	; 0xc9fc
    98c8:	e3400002 	movt	r0, #2
    98cc:	e3401002 	movt	r1, #2
    98d0:	e59f2018 	ldr	r2, [pc, #24]	; 98f0 <uart_control+0x8c>
    98d4:	e3a03046 	mov	r3, #70	; 0x46
    98d8:	e5cd5007 	strb	r5, [sp, #7]
    98dc:	eb0012e7 	bl	e480 <rt_kprintf>
    98e0:	e5dd3007 	ldrb	r3, [sp, #7]
    98e4:	e3530000 	cmp	r3, #0
    98e8:	0afffffc 	beq	98e0 <uart_control+0x7c>
    98ec:	eaffffe1 	b	9878 <uart_control+0x14>
    98f0:	0002b46c 	andeq	fp, r2, ip, ror #8

000098f4 <rt_hw_uart_isr>:
    98f4:	e1a00001 	mov	r0, r1
    98f8:	e3a01001 	mov	r1, #1
    98fc:	ea001f33 	b	115d0 <rt_hw_serial_isr>

00009900 <rt_system_tick_init>:
    9900:	e12fff1e 	bx	lr

00009904 <rt_tick_get>:
    9904:	e30e3164 	movw	r3, #57700	; 0xe164
    9908:	e3403002 	movt	r3, #2
    990c:	e5930000 	ldr	r0, [r3]
    9910:	e12fff1e 	bx	lr

00009914 <rt_tick_set>:
    9914:	e92d4010 	push	{r4, lr}
    9918:	e1a04000 	mov	r4, r0
    991c:	ebfffcb3 	bl	8bf0 <rt_hw_interrupt_disable>
    9920:	e30e3164 	movw	r3, #57700	; 0xe164
    9924:	e3403002 	movt	r3, #2
    9928:	e5834000 	str	r4, [r3]
    992c:	e8bd4010 	pop	{r4, lr}
    9930:	eafffcb2 	b	8c00 <rt_hw_interrupt_enable>

00009934 <rt_tick_increase>:
    9934:	e30e0164 	movw	r0, #57700	; 0xe164
    9938:	e3400002 	movt	r0, #2
    993c:	e92d4008 	push	{r3, lr}
    9940:	e590c000 	ldr	ip, [r0]
    9944:	e28c2001 	add	r2, ip, #1
    9948:	e5802000 	str	r2, [r0]
    994c:	eb0018c1 	bl	fc58 <rt_thread_self>
    9950:	e5901044 	ldr	r1, [r0, #68]	; 0x44
    9954:	e2413001 	sub	r3, r1, #1
    9958:	e5803044 	str	r3, [r0, #68]	; 0x44
    995c:	e3530000 	cmp	r3, #0
    9960:	1a000002 	bne	9970 <rt_tick_increase+0x3c>
    9964:	e590e040 	ldr	lr, [r0, #64]	; 0x40
    9968:	e580e044 	str	lr, [r0, #68]	; 0x44
    996c:	eb001926 	bl	fe0c <rt_thread_yield>
    9970:	e8bd4008 	pop	{r3, lr}
    9974:	ea001b7d 	b	10770 <rt_timer_check>

00009978 <rt_tick_from_millisecond>:
    9978:	e3a03ffa 	mov	r3, #1000	; 0x3e8
    997c:	e3041dd3 	movw	r1, #19923	; 0x4dd3
    9980:	e00c0093 	mul	ip, r3, r0
    9984:	e3411062 	movt	r1, #4194	; 0x1062
    9988:	e28c0ff9 	add	r0, ip, #996	; 0x3e4
    998c:	e2802003 	add	r2, r0, #3
    9990:	e0831291 	umull	r1, r3, r1, r2
    9994:	e1a00323 	lsr	r0, r3, #6
    9998:	e12fff1e 	bx	lr

0000999c <rt_device_unregister>:
    999c:	e92d4010 	push	{r4, lr}
    99a0:	e2504000 	subs	r4, r0, #0
    99a4:	e24dd008 	sub	sp, sp, #8
    99a8:	0a000004 	beq	99c0 <rt_device_unregister+0x24>
    99ac:	e1a00004 	mov	r0, r4
    99b0:	eb001600 	bl	f1b8 <rt_object_detach>
    99b4:	e3a00000 	mov	r0, #0
    99b8:	e28dd008 	add	sp, sp, #8
    99bc:	e8bd8010 	pop	{r4, pc}
    99c0:	e30c082c 	movw	r0, #51244	; 0xc82c
    99c4:	e30c1a10 	movw	r1, #51728	; 0xca10
    99c8:	e30b247c 	movw	r2, #46204	; 0xb47c
    99cc:	e3400002 	movt	r0, #2
    99d0:	e3401002 	movt	r1, #2
    99d4:	e3402002 	movt	r2, #2
    99d8:	e3a03046 	mov	r3, #70	; 0x46
    99dc:	e5cd4007 	strb	r4, [sp, #7]
    99e0:	eb0012a6 	bl	e480 <rt_kprintf>
    99e4:	e5dd3007 	ldrb	r3, [sp, #7]
    99e8:	e3530000 	cmp	r3, #0
    99ec:	0afffffc 	beq	99e4 <rt_device_unregister+0x48>
    99f0:	eaffffed 	b	99ac <rt_device_unregister+0x10>

000099f4 <rt_device_init_all>:
    99f4:	e3a00000 	mov	r0, #0
    99f8:	e12fff1e 	bx	lr

000099fc <rt_device_find>:
    99fc:	e92d40f8 	push	{r3, r4, r5, r6, r7, lr}
    9a00:	e1a07000 	mov	r7, r0
    9a04:	eb001893 	bl	fc58 <rt_thread_self>
    9a08:	e3500000 	cmp	r0, #0
    9a0c:	0a000000 	beq	9a14 <rt_device_find+0x18>
    9a10:	eb0017ad 	bl	f8cc <rt_enter_critical>
    9a14:	e30d6b48 	movw	r6, #56136	; 0xdb48
    9a18:	e3406002 	movt	r6, #2
    9a1c:	e5b64074 	ldr	r4, [r6, #116]!	; 0x74
    9a20:	e1540006 	cmp	r4, r6
    9a24:	1a000003 	bne	9a38 <rt_device_find+0x3c>
    9a28:	ea00000f 	b	9a6c <rt_device_find+0x70>
    9a2c:	e5944000 	ldr	r4, [r4]
    9a30:	e1540006 	cmp	r4, r6
    9a34:	0a00000c 	beq	9a6c <rt_device_find+0x70>
    9a38:	e2445008 	sub	r5, r4, #8
    9a3c:	e1a01007 	mov	r1, r7
    9a40:	e3a02006 	mov	r2, #6
    9a44:	e1a00005 	mov	r0, r5
    9a48:	eb001018 	bl	dab0 <rt_strncmp>
    9a4c:	e3500000 	cmp	r0, #0
    9a50:	1afffff5 	bne	9a2c <rt_device_find+0x30>
    9a54:	eb00187f 	bl	fc58 <rt_thread_self>
    9a58:	e3500000 	cmp	r0, #0
    9a5c:	0a000000 	beq	9a64 <rt_device_find+0x68>
    9a60:	eb0017a2 	bl	f8f0 <rt_exit_critical>
    9a64:	e1a00005 	mov	r0, r5
    9a68:	e8bd80f8 	pop	{r3, r4, r5, r6, r7, pc}
    9a6c:	eb001879 	bl	fc58 <rt_thread_self>
    9a70:	e2505000 	subs	r5, r0, #0
    9a74:	0afffffa 	beq	9a64 <rt_device_find+0x68>
    9a78:	e3a05000 	mov	r5, #0
    9a7c:	eb00179b 	bl	f8f0 <rt_exit_critical>
    9a80:	e1a00005 	mov	r0, r5
    9a84:	e8bd80f8 	pop	{r3, r4, r5, r6, r7, pc}

00009a88 <rt_device_register>:
    9a88:	e92d40f8 	push	{r3, r4, r5, r6, r7, lr}
    9a8c:	e2504000 	subs	r4, r0, #0
    9a90:	e1a05001 	mov	r5, r1
    9a94:	e1a07002 	mov	r7, r2
    9a98:	03e00000 	mvneq	r0, #0
    9a9c:	08bd80f8 	popeq	{r3, r4, r5, r6, r7, pc}
    9aa0:	e1a00001 	mov	r0, r1
    9aa4:	ebffffd4 	bl	99fc <rt_device_find>
    9aa8:	e2506000 	subs	r6, r0, #0
    9aac:	1a000007 	bne	9ad0 <rt_device_register+0x48>
    9ab0:	e1a00004 	mov	r0, r4
    9ab4:	e3a01007 	mov	r1, #7
    9ab8:	e1a02005 	mov	r2, r5
    9abc:	eb0015a1 	bl	f148 <rt_object_init>
    9ac0:	e1c471b2 	strh	r7, [r4, #18]
    9ac4:	e5c46016 	strb	r6, [r4, #22]
    9ac8:	e1a00006 	mov	r0, r6
    9acc:	e8bd80f8 	pop	{r3, r4, r5, r6, r7, pc}
    9ad0:	e3e00000 	mvn	r0, #0
    9ad4:	e8bd80f8 	pop	{r3, r4, r5, r6, r7, pc}

00009ad8 <rt_device_init>:
    9ad8:	e92d4030 	push	{r4, r5, lr}
    9adc:	e2504000 	subs	r4, r0, #0
    9ae0:	e24dd00c 	sub	sp, sp, #12
    9ae4:	0a000016 	beq	9b44 <rt_device_init+0x6c>
    9ae8:	e5945020 	ldr	r5, [r4, #32]
    9aec:	e3550000 	cmp	r5, #0
    9af0:	0a000003 	beq	9b04 <rt_device_init+0x2c>
    9af4:	e1d401b2 	ldrh	r0, [r4, #18]
    9af8:	e3100010 	tst	r0, #16
    9afc:	13a05000 	movne	r5, #0
    9b00:	0a000002 	beq	9b10 <rt_device_init+0x38>
    9b04:	e1a00005 	mov	r0, r5
    9b08:	e28dd00c 	add	sp, sp, #12
    9b0c:	e8bd8030 	pop	{r4, r5, pc}
    9b10:	e1a00004 	mov	r0, r4
    9b14:	e12fff35 	blx	r5
    9b18:	e2505000 	subs	r5, r0, #0
    9b1c:	01d421b2 	ldrheq	r2, [r4, #18]
    9b20:	03821010 	orreq	r1, r2, #16
    9b24:	01c411b2 	strheq	r1, [r4, #18]
    9b28:	0afffff5 	beq	9b04 <rt_device_init+0x2c>
    9b2c:	e30c0a20 	movw	r0, #51744	; 0xca20
    9b30:	e1a01004 	mov	r1, r4
    9b34:	e3400002 	movt	r0, #2
    9b38:	e1a02005 	mov	r2, r5
    9b3c:	eb00124f 	bl	e480 <rt_kprintf>
    9b40:	eaffffef 	b	9b04 <rt_device_init+0x2c>
    9b44:	e30c082c 	movw	r0, #51244	; 0xc82c
    9b48:	e30c1a10 	movw	r1, #51728	; 0xca10
    9b4c:	e3400002 	movt	r0, #2
    9b50:	e3401002 	movt	r1, #2
    9b54:	e59f2018 	ldr	r2, [pc, #24]	; 9b74 <rt_device_init+0x9c>
    9b58:	e3a03093 	mov	r3, #147	; 0x93
    9b5c:	e5cd4007 	strb	r4, [sp, #7]
    9b60:	eb001246 	bl	e480 <rt_kprintf>
    9b64:	e5dd3007 	ldrb	r3, [sp, #7]
    9b68:	e3530000 	cmp	r3, #0
    9b6c:	0afffffc 	beq	9b64 <rt_device_init+0x8c>
    9b70:	eaffffdc 	b	9ae8 <rt_device_init+0x10>
    9b74:	0002b494 	muleq	r2, r4, r4

00009b78 <rt_device_open>:
    9b78:	e92d4070 	push	{r4, r5, r6, lr}
    9b7c:	e2504000 	subs	r4, r0, #0
    9b80:	e24dd008 	sub	sp, sp, #8
    9b84:	e1a06001 	mov	r6, r1
    9b88:	0a00003b 	beq	9c7c <rt_device_open+0x104>
    9b8c:	e1d421b2 	ldrh	r2, [r4, #18]
    9b90:	e3120010 	tst	r2, #16
    9b94:	e1a03002 	mov	r3, r2
    9b98:	1a000009 	bne	9bc4 <rt_device_open+0x4c>
    9b9c:	e5943020 	ldr	r3, [r4, #32]
    9ba0:	e3530000 	cmp	r3, #0
    9ba4:	0a000004 	beq	9bbc <rt_device_open+0x44>
    9ba8:	e1a00004 	mov	r0, r4
    9bac:	e12fff33 	blx	r3
    9bb0:	e2505000 	subs	r5, r0, #0
    9bb4:	01d421b2 	ldrheq	r2, [r4, #18]
    9bb8:	1a000029 	bne	9c64 <rt_device_open+0xec>
    9bbc:	e3823010 	orr	r3, r2, #16
    9bc0:	e1c431b2 	strh	r3, [r4, #18]
    9bc4:	e3130008 	tst	r3, #8
    9bc8:	1a000020 	bne	9c50 <rt_device_open+0xd8>
    9bcc:	e5945024 	ldr	r5, [r4, #36]	; 0x24
    9bd0:	e3550000 	cmp	r5, #0
    9bd4:	0a000009 	beq	9c00 <rt_device_open+0x88>
    9bd8:	e1a00004 	mov	r0, r4
    9bdc:	e1a01006 	mov	r1, r6
    9be0:	e12fff35 	blx	r5
    9be4:	e3700006 	cmn	r0, #6
    9be8:	13500000 	cmpne	r0, #0
    9bec:	e1a05000 	mov	r5, r0
    9bf0:	0a000002 	beq	9c00 <rt_device_open+0x88>
    9bf4:	e1a00005 	mov	r0, r5
    9bf8:	e28dd008 	add	sp, sp, #8
    9bfc:	e8bd8070 	pop	{r4, r5, r6, pc}
    9c00:	e5d41016 	ldrb	r1, [r4, #22]
    9c04:	e3866008 	orr	r6, r6, #8
    9c08:	e1c461b4 	strh	r6, [r4, #20]
    9c0c:	e281c001 	add	ip, r1, #1
    9c10:	e6efc07c 	uxtb	ip, ip
    9c14:	e5c4c016 	strb	ip, [r4, #22]
    9c18:	e35c0000 	cmp	ip, #0
    9c1c:	1afffff4 	bne	9bf4 <rt_device_open+0x7c>
    9c20:	e30c082c 	movw	r0, #51244	; 0xc82c
    9c24:	e30c1a58 	movw	r1, #51800	; 0xca58
    9c28:	e3400002 	movt	r0, #2
    9c2c:	e3401002 	movt	r1, #2
    9c30:	e59f2074 	ldr	r2, [pc, #116]	; 9cac <rt_device_open+0x134>
    9c34:	e3a030df 	mov	r3, #223	; 0xdf
    9c38:	e5cdc007 	strb	ip, [sp, #7]
    9c3c:	eb00120f 	bl	e480 <rt_kprintf>
    9c40:	e5dd2007 	ldrb	r2, [sp, #7]
    9c44:	e3520000 	cmp	r2, #0
    9c48:	0afffffc 	beq	9c40 <rt_device_open+0xc8>
    9c4c:	eaffffe8 	b	9bf4 <rt_device_open+0x7c>
    9c50:	e1d401b4 	ldrh	r0, [r4, #20]
    9c54:	e3100008 	tst	r0, #8
    9c58:	13e05006 	mvnne	r5, #6
    9c5c:	0affffda 	beq	9bcc <rt_device_open+0x54>
    9c60:	eaffffe3 	b	9bf4 <rt_device_open+0x7c>
    9c64:	e30c0a20 	movw	r0, #51744	; 0xca20
    9c68:	e1a01004 	mov	r1, r4
    9c6c:	e3400002 	movt	r0, #2
    9c70:	e1a02005 	mov	r2, r5
    9c74:	eb001201 	bl	e480 <rt_kprintf>
    9c78:	eaffffdd 	b	9bf4 <rt_device_open+0x7c>
    9c7c:	e30c082c 	movw	r0, #51244	; 0xc82c
    9c80:	e30c1a10 	movw	r1, #51728	; 0xca10
    9c84:	e3400002 	movt	r0, #2
    9c88:	e3401002 	movt	r1, #2
    9c8c:	e59f2018 	ldr	r2, [pc, #24]	; 9cac <rt_device_open+0x134>
    9c90:	e3a030b6 	mov	r3, #182	; 0xb6
    9c94:	e5cd4007 	strb	r4, [sp, #7]
    9c98:	eb0011f8 	bl	e480 <rt_kprintf>
    9c9c:	e5dd3007 	ldrb	r3, [sp, #7]
    9ca0:	e3530000 	cmp	r3, #0
    9ca4:	0afffffc 	beq	9c9c <rt_device_open+0x124>
    9ca8:	eaffffb7 	b	9b8c <rt_device_open+0x14>
    9cac:	0002b4a4 	andeq	fp, r2, r4, lsr #9

00009cb0 <rt_device_close>:
    9cb0:	e92d4010 	push	{r4, lr}
    9cb4:	e2504000 	subs	r4, r0, #0
    9cb8:	e24dd008 	sub	sp, sp, #8
    9cbc:	0a000017 	beq	9d20 <rt_device_close+0x70>
    9cc0:	e5d43016 	ldrb	r3, [r4, #22]
    9cc4:	e3530000 	cmp	r3, #0
    9cc8:	03e00000 	mvneq	r0, #0
    9ccc:	0a00000d 	beq	9d08 <rt_device_close+0x58>
    9cd0:	e2432001 	sub	r2, r3, #1
    9cd4:	e6ef1072 	uxtb	r1, r2
    9cd8:	e5c41016 	strb	r1, [r4, #22]
    9cdc:	e3510000 	cmp	r1, #0
    9ce0:	13a00000 	movne	r0, #0
    9ce4:	1a000007 	bne	9d08 <rt_device_close+0x58>
    9ce8:	e5943028 	ldr	r3, [r4, #40]	; 0x28
    9cec:	e3530000 	cmp	r3, #0
    9cf0:	0a000006 	beq	9d10 <rt_device_close+0x60>
    9cf4:	e1a00004 	mov	r0, r4
    9cf8:	e12fff33 	blx	r3
    9cfc:	e3700006 	cmn	r0, #6
    9d00:	13500000 	cmpne	r0, #0
    9d04:	0a000002 	beq	9d14 <rt_device_close+0x64>
    9d08:	e28dd008 	add	sp, sp, #8
    9d0c:	e8bd8010 	pop	{r4, pc}
    9d10:	e1a00003 	mov	r0, r3
    9d14:	e3a0c000 	mov	ip, #0
    9d18:	e1c4c1b4 	strh	ip, [r4, #20]
    9d1c:	eafffff9 	b	9d08 <rt_device_close+0x58>
    9d20:	e30c082c 	movw	r0, #51244	; 0xc82c
    9d24:	e30c1a10 	movw	r1, #51728	; 0xca10
    9d28:	e3400002 	movt	r0, #2
    9d2c:	e3401002 	movt	r1, #2
    9d30:	e59f2018 	ldr	r2, [pc, #24]	; 9d50 <rt_device_close+0xa0>
    9d34:	e3a030f1 	mov	r3, #241	; 0xf1
    9d38:	e5cd4007 	strb	r4, [sp, #7]
    9d3c:	eb0011cf 	bl	e480 <rt_kprintf>
    9d40:	e5dd3007 	ldrb	r3, [sp, #7]
    9d44:	e3530000 	cmp	r3, #0
    9d48:	0afffffc 	beq	9d40 <rt_device_close+0x90>
    9d4c:	eaffffdb 	b	9cc0 <rt_device_close+0x10>
    9d50:	0002b4b4 			; <UNDEFINED> instruction: 0x0002b4b4

00009d54 <rt_device_read>:
    9d54:	e92d41f0 	push	{r4, r5, r6, r7, r8, lr}
    9d58:	e2504000 	subs	r4, r0, #0
    9d5c:	e24dd008 	sub	sp, sp, #8
    9d60:	e1a07001 	mov	r7, r1
    9d64:	e1a06002 	mov	r6, r2
    9d68:	e1a08003 	mov	r8, r3
    9d6c:	0a000014 	beq	9dc4 <rt_device_read+0x70>
    9d70:	e5d45016 	ldrb	r5, [r4, #22]
    9d74:	e3550000 	cmp	r5, #0
    9d78:	0a000009 	beq	9da4 <rt_device_read+0x50>
    9d7c:	e594502c 	ldr	r5, [r4, #44]	; 0x2c
    9d80:	e3550000 	cmp	r5, #0
    9d84:	0a00000a 	beq	9db4 <rt_device_read+0x60>
    9d88:	e1a00004 	mov	r0, r4
    9d8c:	e1a01007 	mov	r1, r7
    9d90:	e1a02006 	mov	r2, r6
    9d94:	e1a03008 	mov	r3, r8
    9d98:	e12fff35 	blx	r5
    9d9c:	e28dd008 	add	sp, sp, #8
    9da0:	e8bd81f0 	pop	{r4, r5, r6, r7, r8, pc}
    9da4:	e3e00000 	mvn	r0, #0
    9da8:	eb000d37 	bl	d28c <rt_set_errno>
    9dac:	e1a00005 	mov	r0, r5
    9db0:	eafffff9 	b	9d9c <rt_device_read+0x48>
    9db4:	e3e00005 	mvn	r0, #5
    9db8:	eb000d33 	bl	d28c <rt_set_errno>
    9dbc:	e1a00005 	mov	r0, r5
    9dc0:	eafffff5 	b	9d9c <rt_device_read+0x48>
    9dc4:	e30c082c 	movw	r0, #51244	; 0xc82c
    9dc8:	e30c1a10 	movw	r1, #51728	; 0xca10
    9dcc:	e3400002 	movt	r0, #2
    9dd0:	e3401002 	movt	r1, #2
    9dd4:	e59f2018 	ldr	r2, [pc, #24]	; 9df4 <rt_device_read+0xa0>
    9dd8:	e300311a 	movw	r3, #282	; 0x11a
    9ddc:	e5cd4007 	strb	r4, [sp, #7]
    9de0:	eb0011a6 	bl	e480 <rt_kprintf>
    9de4:	e5dd3007 	ldrb	r3, [sp, #7]
    9de8:	e3530000 	cmp	r3, #0
    9dec:	0afffffc 	beq	9de4 <rt_device_read+0x90>
    9df0:	eaffffde 	b	9d70 <rt_device_read+0x1c>
    9df4:	0002b4c4 	andeq	fp, r2, r4, asr #9

00009df8 <rt_device_write>:
    9df8:	e92d41f0 	push	{r4, r5, r6, r7, r8, lr}
    9dfc:	e2504000 	subs	r4, r0, #0
    9e00:	e24dd008 	sub	sp, sp, #8
    9e04:	e1a07001 	mov	r7, r1
    9e08:	e1a06002 	mov	r6, r2
    9e0c:	e1a08003 	mov	r8, r3
    9e10:	0a000014 	beq	9e68 <rt_device_write+0x70>
    9e14:	e5d45016 	ldrb	r5, [r4, #22]
    9e18:	e3550000 	cmp	r5, #0
    9e1c:	0a000009 	beq	9e48 <rt_device_write+0x50>
    9e20:	e5945030 	ldr	r5, [r4, #48]	; 0x30
    9e24:	e3550000 	cmp	r5, #0
    9e28:	0a00000a 	beq	9e58 <rt_device_write+0x60>
    9e2c:	e1a00004 	mov	r0, r4
    9e30:	e1a01007 	mov	r1, r7
    9e34:	e1a02006 	mov	r2, r6
    9e38:	e1a03008 	mov	r3, r8
    9e3c:	e12fff35 	blx	r5
    9e40:	e28dd008 	add	sp, sp, #8
    9e44:	e8bd81f0 	pop	{r4, r5, r6, r7, r8, pc}
    9e48:	e3e00000 	mvn	r0, #0
    9e4c:	eb000d0e 	bl	d28c <rt_set_errno>
    9e50:	e1a00005 	mov	r0, r5
    9e54:	eafffff9 	b	9e40 <rt_device_write+0x48>
    9e58:	e3e00005 	mvn	r0, #5
    9e5c:	eb000d0a 	bl	d28c <rt_set_errno>
    9e60:	e1a00005 	mov	r0, r5
    9e64:	eafffff5 	b	9e40 <rt_device_write+0x48>
    9e68:	e30c082c 	movw	r0, #51244	; 0xc82c
    9e6c:	e30c1a10 	movw	r1, #51728	; 0xca10
    9e70:	e3400002 	movt	r0, #2
    9e74:	e3401002 	movt	r1, #2
    9e78:	e59f2018 	ldr	r2, [pc, #24]	; 9e98 <rt_device_write+0xa0>
    9e7c:	e3a03d05 	mov	r3, #320	; 0x140
    9e80:	e5cd4007 	strb	r4, [sp, #7]
    9e84:	eb00117d 	bl	e480 <rt_kprintf>
    9e88:	e5dd3007 	ldrb	r3, [sp, #7]
    9e8c:	e3530000 	cmp	r3, #0
    9e90:	0afffffc 	beq	9e88 <rt_device_write+0x90>
    9e94:	eaffffde 	b	9e14 <rt_device_write+0x1c>
    9e98:	0002b4d4 	ldrdeq	fp, [r2], -r4

00009e9c <rt_device_control>:
    9e9c:	e92d4070 	push	{r4, r5, r6, lr}
    9ea0:	e2504000 	subs	r4, r0, #0
    9ea4:	e24dd008 	sub	sp, sp, #8
    9ea8:	e1a06001 	mov	r6, r1
    9eac:	e1a05002 	mov	r5, r2
    9eb0:	0a000009 	beq	9edc <rt_device_control+0x40>
    9eb4:	e5943034 	ldr	r3, [r4, #52]	; 0x34
    9eb8:	e3530000 	cmp	r3, #0
    9ebc:	01a00003 	moveq	r0, r3
    9ec0:	0a000003 	beq	9ed4 <rt_device_control+0x38>
    9ec4:	e1a00004 	mov	r0, r4
    9ec8:	e1a01006 	mov	r1, r6
    9ecc:	e1a02005 	mov	r2, r5
    9ed0:	e12fff33 	blx	r3
    9ed4:	e28dd008 	add	sp, sp, #8
    9ed8:	e8bd8070 	pop	{r4, r5, r6, pc}
    9edc:	e30c082c 	movw	r0, #51244	; 0xc82c
    9ee0:	e30c1a10 	movw	r1, #51728	; 0xca10
    9ee4:	e3400002 	movt	r0, #2
    9ee8:	e3401002 	movt	r1, #2
    9eec:	e59f2018 	ldr	r2, [pc, #24]	; 9f0c <rt_device_control+0x70>
    9ef0:	e3a03e16 	mov	r3, #352	; 0x160
    9ef4:	e5cd4007 	strb	r4, [sp, #7]
    9ef8:	eb001160 	bl	e480 <rt_kprintf>
    9efc:	e5dd3007 	ldrb	r3, [sp, #7]
    9f00:	e3530000 	cmp	r3, #0
    9f04:	0afffffc 	beq	9efc <rt_device_control+0x60>
    9f08:	eaffffe9 	b	9eb4 <rt_device_control+0x18>
    9f0c:	0002b4e4 	andeq	fp, r2, r4, ror #9

00009f10 <rt_device_set_rx_indicate>:
    9f10:	e92d4030 	push	{r4, r5, lr}
    9f14:	e2504000 	subs	r4, r0, #0
    9f18:	e24dd00c 	sub	sp, sp, #12
    9f1c:	e1a05001 	mov	r5, r1
    9f20:	0a000003 	beq	9f34 <rt_device_set_rx_indicate+0x24>
    9f24:	e5845018 	str	r5, [r4, #24]
    9f28:	e3a00000 	mov	r0, #0
    9f2c:	e28dd00c 	add	sp, sp, #12
    9f30:	e8bd8030 	pop	{r4, r5, pc}
    9f34:	e30c082c 	movw	r0, #51244	; 0xc82c
    9f38:	e30c1a10 	movw	r1, #51728	; 0xca10
    9f3c:	e3400002 	movt	r0, #2
    9f40:	e3401002 	movt	r1, #2
    9f44:	e59f2018 	ldr	r2, [pc, #24]	; 9f64 <rt_device_set_rx_indicate+0x54>
    9f48:	e3003179 	movw	r3, #377	; 0x179
    9f4c:	e5cd4007 	strb	r4, [sp, #7]
    9f50:	eb00114a 	bl	e480 <rt_kprintf>
    9f54:	e5dd3007 	ldrb	r3, [sp, #7]
    9f58:	e3530000 	cmp	r3, #0
    9f5c:	0afffffc 	beq	9f54 <rt_device_set_rx_indicate+0x44>
    9f60:	eaffffef 	b	9f24 <rt_device_set_rx_indicate+0x14>
    9f64:	0002b4f8 	strdeq	fp, [r2], -r8

00009f68 <rt_device_set_tx_complete>:
    9f68:	e92d4030 	push	{r4, r5, lr}
    9f6c:	e2504000 	subs	r4, r0, #0
    9f70:	e24dd00c 	sub	sp, sp, #12
    9f74:	e1a05001 	mov	r5, r1
    9f78:	0a000003 	beq	9f8c <rt_device_set_tx_complete+0x24>
    9f7c:	e584501c 	str	r5, [r4, #28]
    9f80:	e3a00000 	mov	r0, #0
    9f84:	e28dd00c 	add	sp, sp, #12
    9f88:	e8bd8030 	pop	{r4, r5, pc}
    9f8c:	e30c082c 	movw	r0, #51244	; 0xc82c
    9f90:	e30c1a10 	movw	r1, #51728	; 0xca10
    9f94:	e3400002 	movt	r0, #2
    9f98:	e3401002 	movt	r1, #2
    9f9c:	e59f2018 	ldr	r2, [pc, #24]	; 9fbc <rt_device_set_tx_complete+0x54>
    9fa0:	e300318e 	movw	r3, #398	; 0x18e
    9fa4:	e5cd4007 	strb	r4, [sp, #7]
    9fa8:	eb001134 	bl	e480 <rt_kprintf>
    9fac:	e5dd3007 	ldrb	r3, [sp, #7]
    9fb0:	e3530000 	cmp	r3, #0
    9fb4:	0afffffc 	beq	9fac <rt_device_set_tx_complete+0x44>
    9fb8:	eaffffef 	b	9f7c <rt_device_set_tx_complete+0x14>
    9fbc:	0002b514 	andeq	fp, r2, r4, lsl r5

00009fc0 <rt_thread_idle_sethook>:
    9fc0:	e30e3168 	movw	r3, #57704	; 0xe168
    9fc4:	e3403002 	movt	r3, #2
    9fc8:	e5830000 	str	r0, [r3]
    9fcc:	e12fff1e 	bx	lr

00009fd0 <rt_thread_idle_excute>:
    9fd0:	e92d41f0 	push	{r4, r5, r6, r7, r8, lr}
    9fd4:	e30f4f00 	movw	r4, #65280	; 0xff00
    9fd8:	e3404002 	movt	r4, #2
    9fdc:	e24dd008 	sub	sp, sp, #8
    9fe0:	e5943000 	ldr	r3, [r4]
    9fe4:	e1530004 	cmp	r3, r4
    9fe8:	0a000042 	beq	a0f8 <rt_thread_idle_excute+0x128>
    9fec:	e3a06000 	mov	r6, #0
    9ff0:	ea000020 	b	a078 <rt_thread_idle_excute+0xa8>
    9ff4:	e1a00005 	mov	r0, r5
    9ff8:	ebfffb00 	bl	8c00 <rt_hw_interrupt_enable>
    9ffc:	ebfffafb 	bl	8bf0 <rt_hw_interrupt_disable>
    a000:	e5945000 	ldr	r5, [r4]
    a004:	e1550004 	cmp	r5, r4
    a008:	e1a08000 	mov	r8, r0
    a00c:	0a000036 	beq	a0ec <rt_thread_idle_excute+0x11c>
    a010:	e5952000 	ldr	r2, [r5]
    a014:	e2457010 	sub	r7, r5, #16
    a018:	e595c004 	ldr	ip, [r5, #4]
    a01c:	e5953060 	ldr	r3, [r5, #96]	; 0x60
    a020:	e582c004 	str	ip, [r2, #4]
    a024:	e3530000 	cmp	r3, #0
    a028:	e5951004 	ldr	r1, [r5, #4]
    a02c:	e5855004 	str	r5, [r5, #4]
    a030:	e5812000 	str	r2, [r1]
    a034:	e5855000 	str	r5, [r5]
    a038:	0a000001 	beq	a044 <rt_thread_idle_excute+0x74>
    a03c:	e1a00007 	mov	r0, r7
    a040:	e12fff33 	blx	r3
    a044:	e1a00007 	mov	r0, r7
    a048:	eb0014f0 	bl	f410 <rt_object_is_systemobject>
    a04c:	e3500001 	cmp	r0, #1
    a050:	e1a00008 	mov	r0, r8
    a054:	0a000024 	beq	a0ec <rt_thread_idle_excute+0x11c>
    a058:	ebfffae8 	bl	8c00 <rt_hw_interrupt_enable>
    a05c:	e5950014 	ldr	r0, [r5, #20]
    a060:	eb001318 	bl	ecc8 <rt_free>
    a064:	e1a00007 	mov	r0, r7
    a068:	eb0014b2 	bl	f338 <rt_object_delete>
    a06c:	e5943000 	ldr	r3, [r4]
    a070:	e1530004 	cmp	r3, r4
    a074:	0a00001f 	beq	a0f8 <rt_thread_idle_excute+0x128>
    a078:	ebfffadc 	bl	8bf0 <rt_hw_interrupt_disable>
    a07c:	e1a05000 	mov	r5, r0
    a080:	eb000b8a 	bl	ceb0 <rt_interrupt_get_nest>
    a084:	e3500000 	cmp	r0, #0
    a088:	0affffd9 	beq	9ff4 <rt_thread_idle_excute+0x24>
    a08c:	e30c0a6c 	movw	r0, #51820	; 0xca6c
    a090:	e30b1530 	movw	r1, #46384	; 0xb530
    a094:	e3400002 	movt	r0, #2
    a098:	e3401002 	movt	r1, #2
    a09c:	eb0010f7 	bl	e480 <rt_kprintf>
    a0a0:	e30c082c 	movw	r0, #51244	; 0xc82c
    a0a4:	e30c1b44 	movw	r1, #52036	; 0xcb44
    a0a8:	e30b2530 	movw	r2, #46384	; 0xb530
    a0ac:	e3400002 	movt	r0, #2
    a0b0:	e3401002 	movt	r1, #2
    a0b4:	e3402002 	movt	r2, #2
    a0b8:	e3a03050 	mov	r3, #80	; 0x50
    a0bc:	e5cd6007 	strb	r6, [sp, #7]
    a0c0:	eb0010ee 	bl	e480 <rt_kprintf>
    a0c4:	e5dd0007 	ldrb	r0, [sp, #7]
    a0c8:	e3500000 	cmp	r0, #0
    a0cc:	0afffffc 	beq	a0c4 <rt_thread_idle_excute+0xf4>
    a0d0:	e1a00005 	mov	r0, r5
    a0d4:	ebfffac9 	bl	8c00 <rt_hw_interrupt_enable>
    a0d8:	ebfffac4 	bl	8bf0 <rt_hw_interrupt_disable>
    a0dc:	e5945000 	ldr	r5, [r4]
    a0e0:	e1550004 	cmp	r5, r4
    a0e4:	e1a08000 	mov	r8, r0
    a0e8:	1affffc8 	bne	a010 <rt_thread_idle_excute+0x40>
    a0ec:	e28dd008 	add	sp, sp, #8
    a0f0:	e8bd41f0 	pop	{r4, r5, r6, r7, r8, lr}
    a0f4:	eafffac1 	b	8c00 <rt_hw_interrupt_enable>
    a0f8:	e28dd008 	add	sp, sp, #8
    a0fc:	e8bd81f0 	pop	{r4, r5, r6, r7, r8, pc}

0000a100 <rt_thread_idle_entry>:
    a100:	e92d4010 	push	{r4, lr}
    a104:	e30e4168 	movw	r4, #57704	; 0xe168
    a108:	e3404002 	movt	r4, #2
    a10c:	e5943000 	ldr	r3, [r4]
    a110:	e3530000 	cmp	r3, #0
    a114:	0a000000 	beq	a11c <rt_thread_idle_entry+0x1c>
    a118:	e12fff33 	blx	r3
    a11c:	ebffffab 	bl	9fd0 <rt_thread_idle_excute>
    a120:	eafffff9 	b	a10c <rt_thread_idle_entry+0xc>

0000a124 <rt_thread_idle_init>:
    a124:	e30ec168 	movw	ip, #57704	; 0xe168
    a128:	e340c002 	movt	ip, #2
    a12c:	e92d4010 	push	{r4, lr}
    a130:	e28c4004 	add	r4, ip, #4
    a134:	e24dd010 	sub	sp, sp, #16
    a138:	e3a03000 	mov	r3, #0
    a13c:	e1a00004 	mov	r0, r4
    a140:	e30c1a90 	movw	r1, #51856	; 0xca90
    a144:	e30a2100 	movw	r2, #41216	; 0xa100
    a148:	e3401002 	movt	r1, #2
    a14c:	e3402000 	movt	r2, #0
    a150:	e28ce07c 	add	lr, ip, #124	; 0x7c
    a154:	e3a0cc02 	mov	ip, #512	; 0x200
    a158:	e58de000 	str	lr, [sp]
    a15c:	e3a0e01f 	mov	lr, #31
    a160:	e98d5000 	stmib	sp, {ip, lr}
    a164:	e3a0c020 	mov	ip, #32
    a168:	e58dc00c 	str	ip, [sp, #12]
    a16c:	eb001685 	bl	fb88 <rt_thread_init>
    a170:	e1a00004 	mov	r0, r4
    a174:	e28dd010 	add	sp, sp, #16
    a178:	e8bd4010 	pop	{r4, lr}
    a17c:	ea0017ba 	b	1006c <rt_thread_startup>

0000a180 <rt_sem_init>:
    a180:	e92d40f0 	push	{r4, r5, r6, r7, lr}
    a184:	e2504000 	subs	r4, r0, #0
    a188:	e24dd00c 	sub	sp, sp, #12
    a18c:	e1a07001 	mov	r7, r1
    a190:	e1a06002 	mov	r6, r2
    a194:	e1a05003 	mov	r5, r3
    a198:	0a00000b 	beq	a1cc <rt_sem_init+0x4c>
    a19c:	e1a00004 	mov	r0, r4
    a1a0:	e3a01001 	mov	r1, #1
    a1a4:	e1a02007 	mov	r2, r7
    a1a8:	eb0013e6 	bl	f148 <rt_object_init>
    a1ac:	e2841010 	add	r1, r4, #16
    a1b0:	e1c461b8 	strh	r6, [r4, #24]
    a1b4:	e3a00000 	mov	r0, #0
    a1b8:	e5841014 	str	r1, [r4, #20]
    a1bc:	e5841010 	str	r1, [r4, #16]
    a1c0:	e5c45007 	strb	r5, [r4, #7]
    a1c4:	e28dd00c 	add	sp, sp, #12
    a1c8:	e8bd80f0 	pop	{r4, r5, r6, r7, pc}
    a1cc:	e30c082c 	movw	r0, #51244	; 0xc82c
    a1d0:	e30c1a98 	movw	r1, #51864	; 0xca98
    a1d4:	e30b2548 	movw	r2, #46408	; 0xb548
    a1d8:	e3400002 	movt	r0, #2
    a1dc:	e3401002 	movt	r1, #2
    a1e0:	e3402002 	movt	r2, #2
    a1e4:	e3a030d8 	mov	r3, #216	; 0xd8
    a1e8:	e5cd4007 	strb	r4, [sp, #7]
    a1ec:	eb0010a3 	bl	e480 <rt_kprintf>
    a1f0:	e5dd3007 	ldrb	r3, [sp, #7]
    a1f4:	e3530000 	cmp	r3, #0
    a1f8:	0afffffc 	beq	a1f0 <rt_sem_init+0x70>
    a1fc:	eaffffe6 	b	a19c <rt_sem_init+0x1c>

0000a200 <rt_sem_detach>:
    a200:	e92d40f0 	push	{r4, r5, r6, r7, lr}
    a204:	e2504000 	subs	r4, r0, #0
    a208:	e24dd00c 	sub	sp, sp, #12
    a20c:	0a000014 	beq	a264 <rt_sem_detach+0x64>
    a210:	e5940010 	ldr	r0, [r4, #16]
    a214:	e2845010 	add	r5, r4, #16
    a218:	e1550000 	cmp	r5, r0
    a21c:	0a00000b 	beq	a250 <rt_sem_detach+0x50>
    a220:	e3e07000 	mvn	r7, #0
    a224:	ebfffa71 	bl	8bf0 <rt_hw_interrupt_disable>
    a228:	e5952000 	ldr	r2, [r5]
    a22c:	e582701c 	str	r7, [r2, #28]
    a230:	e1a06000 	mov	r6, r0
    a234:	e2420010 	sub	r0, r2, #16
    a238:	eb001763 	bl	ffcc <rt_thread_resume>
    a23c:	e1a00006 	mov	r0, r6
    a240:	ebfffa6e 	bl	8c00 <rt_hw_interrupt_enable>
    a244:	e5951000 	ldr	r1, [r5]
    a248:	e1550001 	cmp	r5, r1
    a24c:	1afffff4 	bne	a224 <rt_sem_detach+0x24>
    a250:	e1a00004 	mov	r0, r4
    a254:	eb0013d7 	bl	f1b8 <rt_object_detach>
    a258:	e3a00000 	mov	r0, #0
    a25c:	e28dd00c 	add	sp, sp, #12
    a260:	e8bd80f0 	pop	{r4, r5, r6, r7, pc}
    a264:	e30c082c 	movw	r0, #51244	; 0xc82c
    a268:	e30c1a98 	movw	r1, #51864	; 0xca98
    a26c:	e3400002 	movt	r0, #2
    a270:	e3401002 	movt	r1, #2
    a274:	e59f2018 	ldr	r2, [pc, #24]	; a294 <rt_sem_detach+0x94>
    a278:	e3a030f5 	mov	r3, #245	; 0xf5
    a27c:	e5cd4007 	strb	r4, [sp, #7]
    a280:	eb00107e 	bl	e480 <rt_kprintf>
    a284:	e5dd3007 	ldrb	r3, [sp, #7]
    a288:	e3530000 	cmp	r3, #0
    a28c:	0afffffc 	beq	a284 <rt_sem_detach+0x84>
    a290:	eaffffde 	b	a210 <rt_sem_detach+0x10>
    a294:	0002b554 	andeq	fp, r2, r4, asr r5

0000a298 <rt_sem_create>:
    a298:	e92d40f0 	push	{r4, r5, r6, r7, lr}
    a29c:	e24dd00c 	sub	sp, sp, #12
    a2a0:	e1a07001 	mov	r7, r1
    a2a4:	e1a06002 	mov	r6, r2
    a2a8:	e1a04000 	mov	r4, r0
    a2ac:	ebfffa4f 	bl	8bf0 <rt_hw_interrupt_disable>
    a2b0:	e1a05000 	mov	r5, r0
    a2b4:	eb000afd 	bl	ceb0 <rt_interrupt_get_nest>
    a2b8:	e3500000 	cmp	r0, #0
    a2bc:	1a00000c 	bne	a2f4 <rt_sem_create+0x5c>
    a2c0:	e1a00005 	mov	r0, r5
    a2c4:	ebfffa4d 	bl	8c00 <rt_hw_interrupt_enable>
    a2c8:	e1a01004 	mov	r1, r4
    a2cc:	e3a00001 	mov	r0, #1
    a2d0:	eb0013dc 	bl	f248 <rt_object_allocate>
    a2d4:	e3500000 	cmp	r0, #0
    a2d8:	11c071b8 	strhne	r7, [r0, #24]
    a2dc:	12801010 	addne	r1, r0, #16
    a2e0:	15c06007 	strbne	r6, [r0, #7]
    a2e4:	15801014 	strne	r1, [r0, #20]
    a2e8:	15801010 	strne	r1, [r0, #16]
    a2ec:	e28dd00c 	add	sp, sp, #12
    a2f0:	e8bd80f0 	pop	{r4, r5, r6, r7, pc}
    a2f4:	e59f103c 	ldr	r1, [pc, #60]	; a338 <rt_sem_create+0xa0>
    a2f8:	e30c0a6c 	movw	r0, #51820	; 0xca6c
    a2fc:	e3400002 	movt	r0, #2
    a300:	eb00105e 	bl	e480 <rt_kprintf>
    a304:	e30c082c 	movw	r0, #51244	; 0xc82c
    a308:	e30c1b44 	movw	r1, #52036	; 0xcb44
    a30c:	e3400002 	movt	r0, #2
    a310:	e3401002 	movt	r1, #2
    a314:	e59f201c 	ldr	r2, [pc, #28]	; a338 <rt_sem_create+0xa0>
    a318:	e3003111 	movw	r3, #273	; 0x111
    a31c:	e3a0c000 	mov	ip, #0
    a320:	e5cdc007 	strb	ip, [sp, #7]
    a324:	eb001055 	bl	e480 <rt_kprintf>
    a328:	e5dd3007 	ldrb	r3, [sp, #7]
    a32c:	e3530000 	cmp	r3, #0
    a330:	0afffffc 	beq	a328 <rt_sem_create+0x90>
    a334:	eaffffe1 	b	a2c0 <rt_sem_create+0x28>
    a338:	0002b564 	andeq	fp, r2, r4, ror #10

0000a33c <rt_sem_delete>:
    a33c:	e92d40f0 	push	{r4, r5, r6, r7, lr}
    a340:	e24dd00c 	sub	sp, sp, #12
    a344:	e1a04000 	mov	r4, r0
    a348:	ebfffa28 	bl	8bf0 <rt_hw_interrupt_disable>
    a34c:	e1a05000 	mov	r5, r0
    a350:	eb000ad6 	bl	ceb0 <rt_interrupt_get_nest>
    a354:	e3500000 	cmp	r0, #0
    a358:	1a000018 	bne	a3c0 <rt_sem_delete+0x84>
    a35c:	e1a00005 	mov	r0, r5
    a360:	ebfffa26 	bl	8c00 <rt_hw_interrupt_enable>
    a364:	e3540000 	cmp	r4, #0
    a368:	0a000028 	beq	a410 <rt_sem_delete+0xd4>
    a36c:	e5941010 	ldr	r1, [r4, #16]
    a370:	e2845010 	add	r5, r4, #16
    a374:	e1550001 	cmp	r5, r1
    a378:	0a00000b 	beq	a3ac <rt_sem_delete+0x70>
    a37c:	e3e07000 	mvn	r7, #0
    a380:	ebfffa1a 	bl	8bf0 <rt_hw_interrupt_disable>
    a384:	e595c000 	ldr	ip, [r5]
    a388:	e58c701c 	str	r7, [ip, #28]
    a38c:	e1a06000 	mov	r6, r0
    a390:	e24c0010 	sub	r0, ip, #16
    a394:	eb00170c 	bl	ffcc <rt_thread_resume>
    a398:	e1a00006 	mov	r0, r6
    a39c:	ebfffa17 	bl	8c00 <rt_hw_interrupt_enable>
    a3a0:	e5952000 	ldr	r2, [r5]
    a3a4:	e1550002 	cmp	r5, r2
    a3a8:	1afffff4 	bne	a380 <rt_sem_delete+0x44>
    a3ac:	e1a00004 	mov	r0, r4
    a3b0:	eb0013e0 	bl	f338 <rt_object_delete>
    a3b4:	e3a00000 	mov	r0, #0
    a3b8:	e28dd00c 	add	sp, sp, #12
    a3bc:	e8bd80f0 	pop	{r4, r5, r6, r7, pc}
    a3c0:	e59f1078 	ldr	r1, [pc, #120]	; a440 <rt_sem_delete+0x104>
    a3c4:	e30c0a6c 	movw	r0, #51820	; 0xca6c
    a3c8:	e3400002 	movt	r0, #2
    a3cc:	eb00102b 	bl	e480 <rt_kprintf>
    a3d0:	e30c082c 	movw	r0, #51244	; 0xc82c
    a3d4:	e30c1b44 	movw	r1, #52036	; 0xcb44
    a3d8:	e3400002 	movt	r0, #2
    a3dc:	e3401002 	movt	r1, #2
    a3e0:	e59f2058 	ldr	r2, [pc, #88]	; a440 <rt_sem_delete+0x104>
    a3e4:	e3a03e13 	mov	r3, #304	; 0x130
    a3e8:	e3a0c000 	mov	ip, #0
    a3ec:	e5cdc007 	strb	ip, [sp, #7]
    a3f0:	eb001022 	bl	e480 <rt_kprintf>
    a3f4:	e5dd3007 	ldrb	r3, [sp, #7]
    a3f8:	e3530000 	cmp	r3, #0
    a3fc:	0afffffc 	beq	a3f4 <rt_sem_delete+0xb8>
    a400:	e1a00005 	mov	r0, r5
    a404:	ebfff9fd 	bl	8c00 <rt_hw_interrupt_enable>
    a408:	e3540000 	cmp	r4, #0
    a40c:	1affffd6 	bne	a36c <rt_sem_delete+0x30>
    a410:	e30c082c 	movw	r0, #51244	; 0xc82c
    a414:	e30c1a98 	movw	r1, #51864	; 0xca98
    a418:	e3400002 	movt	r0, #2
    a41c:	e3401002 	movt	r1, #2
    a420:	e59f2018 	ldr	r2, [pc, #24]	; a440 <rt_sem_delete+0x104>
    a424:	e3003132 	movw	r3, #306	; 0x132
    a428:	e5cd4007 	strb	r4, [sp, #7]
    a42c:	eb001013 	bl	e480 <rt_kprintf>
    a430:	e5dd0007 	ldrb	r0, [sp, #7]
    a434:	e3500000 	cmp	r0, #0
    a438:	0afffffc 	beq	a430 <rt_sem_delete+0xf4>
    a43c:	eaffffca 	b	a36c <rt_sem_delete+0x30>
    a440:	0002b574 	andeq	fp, r2, r4, ror r5

0000a444 <rt_sem_take>:
    a444:	e92d41f0 	push	{r4, r5, r6, r7, r8, lr}
    a448:	e2504000 	subs	r4, r0, #0
    a44c:	e24dd010 	sub	sp, sp, #16
    a450:	e58d1004 	str	r1, [sp, #4]
    a454:	0a000073 	beq	a628 <rt_sem_take+0x1e4>
    a458:	e30f0df0 	movw	r0, #65008	; 0xfdf0
    a45c:	e3400002 	movt	r0, #2
    a460:	e5903000 	ldr	r3, [r0]
    a464:	e3530000 	cmp	r3, #0
    a468:	0a000001 	beq	a474 <rt_sem_take+0x30>
    a46c:	e1a00004 	mov	r0, r4
    a470:	e12fff33 	blx	r3
    a474:	ebfff9dd 	bl	8bf0 <rt_hw_interrupt_disable>
    a478:	e1d431b8 	ldrh	r3, [r4, #24]
    a47c:	e3530000 	cmp	r3, #0
    a480:	e1a05000 	mov	r5, r0
    a484:	1a00004b 	bne	a5b8 <rt_sem_take+0x174>
    a488:	e59d2004 	ldr	r2, [sp, #4]
    a48c:	e3520000 	cmp	r2, #0
    a490:	0a000080 	beq	a698 <rt_sem_take+0x254>
    a494:	ebfff9d5 	bl	8bf0 <rt_hw_interrupt_disable>
    a498:	e1a06000 	mov	r6, r0
    a49c:	eb0015ed 	bl	fc58 <rt_thread_self>
    a4a0:	e2507000 	subs	r7, r0, #0
    a4a4:	0a00006b 	beq	a658 <rt_sem_take+0x214>
    a4a8:	ebfff9d0 	bl	8bf0 <rt_hw_interrupt_disable>
    a4ac:	e1a07000 	mov	r7, r0
    a4b0:	eb000a7e 	bl	ceb0 <rt_interrupt_get_nest>
    a4b4:	e3500000 	cmp	r0, #0
    a4b8:	1a000042 	bne	a5c8 <rt_sem_take+0x184>
    a4bc:	e1a00007 	mov	r0, r7
    a4c0:	e2847010 	add	r7, r4, #16
    a4c4:	ebfff9cd 	bl	8c00 <rt_hw_interrupt_enable>
    a4c8:	e1a00006 	mov	r0, r6
    a4cc:	ebfff9cb 	bl	8c00 <rt_hw_interrupt_enable>
    a4d0:	eb0015e0 	bl	fc58 <rt_thread_self>
    a4d4:	e3a03000 	mov	r3, #0
    a4d8:	e580302c 	str	r3, [r0, #44]	; 0x2c
    a4dc:	e1a06000 	mov	r6, r0
    a4e0:	e5d48007 	ldrb	r8, [r4, #7]
    a4e4:	eb00166b 	bl	fe98 <rt_thread_suspend>
    a4e8:	e3580000 	cmp	r8, #0
    a4ec:	0a00002a 	beq	a59c <rt_sem_take+0x158>
    a4f0:	e3580001 	cmp	r8, #1
    a4f4:	0a00001a 	beq	a564 <rt_sem_take+0x120>
    a4f8:	e59de004 	ldr	lr, [sp, #4]
    a4fc:	e35e0000 	cmp	lr, #0
    a500:	da000006 	ble	a520 <rt_sem_take+0xdc>
    a504:	e2867048 	add	r7, r6, #72	; 0x48
    a508:	e3a01000 	mov	r1, #0
    a50c:	e28d2004 	add	r2, sp, #4
    a510:	e1a00007 	mov	r0, r7
    a514:	eb00186b 	bl	106c8 <rt_timer_control>
    a518:	e1a00007 	mov	r0, r7
    a51c:	eb0017e3 	bl	104b0 <rt_timer_start>
    a520:	e1a00005 	mov	r0, r5
    a524:	ebfff9b5 	bl	8c00 <rt_hw_interrupt_enable>
    a528:	eb00143e 	bl	f628 <rt_schedule>
    a52c:	e596002c 	ldr	r0, [r6, #44]	; 0x2c
    a530:	e3500000 	cmp	r0, #0
    a534:	1a000008 	bne	a55c <rt_sem_take+0x118>
    a538:	e30f2dec 	movw	r2, #65004	; 0xfdec
    a53c:	e3402002 	movt	r2, #2
    a540:	e5923000 	ldr	r3, [r2]
    a544:	e3530000 	cmp	r3, #0
    a548:	01a00003 	moveq	r0, r3
    a54c:	0a000002 	beq	a55c <rt_sem_take+0x118>
    a550:	e1a00004 	mov	r0, r4
    a554:	e12fff33 	blx	r3
    a558:	e3a00000 	mov	r0, #0
    a55c:	e28dd010 	add	sp, sp, #16
    a560:	e8bd81f0 	pop	{r4, r5, r6, r7, r8, pc}
    a564:	e5943010 	ldr	r3, [r4, #16]
    a568:	e1570003 	cmp	r7, r3
    a56c:	0a00000a 	beq	a59c <rt_sem_take+0x158>
    a570:	e5d61031 	ldrb	r1, [r6, #49]	; 0x31
    a574:	e5d3e021 	ldrb	lr, [r3, #33]	; 0x21
    a578:	e15e0001 	cmp	lr, r1
    a57c:	9a000003 	bls	a590 <rt_sem_take+0x14c>
    a580:	ea000021 	b	a60c <rt_sem_take+0x1c8>
    a584:	e5d30021 	ldrb	r0, [r3, #33]	; 0x21
    a588:	e1500001 	cmp	r0, r1
    a58c:	8a00001e 	bhi	a60c <rt_sem_take+0x1c8>
    a590:	e5933000 	ldr	r3, [r3]
    a594:	e1570003 	cmp	r7, r3
    a598:	1afffff9 	bne	a584 <rt_sem_take+0x140>
    a59c:	e5943014 	ldr	r3, [r4, #20]
    a5a0:	e286c010 	add	ip, r6, #16
    a5a4:	e5863014 	str	r3, [r6, #20]
    a5a8:	e583c000 	str	ip, [r3]
    a5ac:	e584c014 	str	ip, [r4, #20]
    a5b0:	e5867010 	str	r7, [r6, #16]
    a5b4:	eaffffcf 	b	a4f8 <rt_sem_take+0xb4>
    a5b8:	e2431001 	sub	r1, r3, #1
    a5bc:	e1c411b8 	strh	r1, [r4, #24]
    a5c0:	ebfff98e 	bl	8c00 <rt_hw_interrupt_enable>
    a5c4:	eaffffdb 	b	a538 <rt_sem_take+0xf4>
    a5c8:	e59f10d4 	ldr	r1, [pc, #212]	; a6a4 <rt_sem_take+0x260>
    a5cc:	e30c0a6c 	movw	r0, #51820	; 0xca6c
    a5d0:	e3400002 	movt	r0, #2
    a5d4:	eb000fa9 	bl	e480 <rt_kprintf>
    a5d8:	e30c082c 	movw	r0, #51244	; 0xc82c
    a5dc:	e30c1b44 	movw	r1, #52036	; 0xcb44
    a5e0:	e3400002 	movt	r0, #2
    a5e4:	e3401002 	movt	r1, #2
    a5e8:	e59f20b4 	ldr	r2, [pc, #180]	; a6a4 <rt_sem_take+0x260>
    a5ec:	e300316d 	movw	r3, #365	; 0x16d
    a5f0:	e3a0c000 	mov	ip, #0
    a5f4:	e5cdc00f 	strb	ip, [sp, #15]
    a5f8:	eb000fa0 	bl	e480 <rt_kprintf>
    a5fc:	e5dd800f 	ldrb	r8, [sp, #15]
    a600:	e3580000 	cmp	r8, #0
    a604:	0afffffc 	beq	a5fc <rt_sem_take+0x1b8>
    a608:	eaffffab 	b	a4bc <rt_sem_take+0x78>
    a60c:	e5931004 	ldr	r1, [r3, #4]
    a610:	e2862010 	add	r2, r6, #16
    a614:	e5861014 	str	r1, [r6, #20]
    a618:	e5812000 	str	r2, [r1]
    a61c:	e5832004 	str	r2, [r3, #4]
    a620:	e5863010 	str	r3, [r6, #16]
    a624:	eaffffb3 	b	a4f8 <rt_sem_take+0xb4>
    a628:	e30c082c 	movw	r0, #51244	; 0xc82c
    a62c:	e30c1a98 	movw	r1, #51864	; 0xca98
    a630:	e3400002 	movt	r0, #2
    a634:	e3401002 	movt	r1, #2
    a638:	e59f2064 	ldr	r2, [pc, #100]	; a6a4 <rt_sem_take+0x260>
    a63c:	e300314d 	movw	r3, #333	; 0x14d
    a640:	e5cd400f 	strb	r4, [sp, #15]
    a644:	eb000f8d 	bl	e480 <rt_kprintf>
    a648:	e5dd300f 	ldrb	r3, [sp, #15]
    a64c:	e3530000 	cmp	r3, #0
    a650:	0afffffc 	beq	a648 <rt_sem_take+0x204>
    a654:	eaffff7f 	b	a458 <rt_sem_take+0x14>
    a658:	e59f1044 	ldr	r1, [pc, #68]	; a6a4 <rt_sem_take+0x260>
    a65c:	e30c0aa8 	movw	r0, #51880	; 0xcaa8
    a660:	e3400002 	movt	r0, #2
    a664:	eb000f85 	bl	e480 <rt_kprintf>
    a668:	e30c082c 	movw	r0, #51244	; 0xc82c
    a66c:	e30c1b44 	movw	r1, #52036	; 0xcb44
    a670:	e3400002 	movt	r0, #2
    a674:	e3401002 	movt	r1, #2
    a678:	e59f2024 	ldr	r2, [pc, #36]	; a6a4 <rt_sem_take+0x260>
    a67c:	e300316d 	movw	r3, #365	; 0x16d
    a680:	e5cd700f 	strb	r7, [sp, #15]
    a684:	eb000f7d 	bl	e480 <rt_kprintf>
    a688:	e5dd700f 	ldrb	r7, [sp, #15]
    a68c:	e3570000 	cmp	r7, #0
    a690:	0afffffc 	beq	a688 <rt_sem_take+0x244>
    a694:	eaffff83 	b	a4a8 <rt_sem_take+0x64>
    a698:	ebfff958 	bl	8c00 <rt_hw_interrupt_enable>
    a69c:	e3e00001 	mvn	r0, #1
    a6a0:	eaffffad 	b	a55c <rt_sem_take+0x118>
    a6a4:	0002b584 	andeq	fp, r2, r4, lsl #11

0000a6a8 <rt_sem_trytake>:
    a6a8:	e3a01000 	mov	r1, #0
    a6ac:	eaffff64 	b	a444 <rt_sem_take>

0000a6b0 <rt_sem_release>:
    a6b0:	e92d4038 	push	{r3, r4, r5, lr}
    a6b4:	e30f3de8 	movw	r3, #65000	; 0xfde8
    a6b8:	e3403002 	movt	r3, #2
    a6bc:	e1a04000 	mov	r4, r0
    a6c0:	e5933000 	ldr	r3, [r3]
    a6c4:	e3530000 	cmp	r3, #0
    a6c8:	0a000000 	beq	a6d0 <rt_sem_release+0x20>
    a6cc:	e12fff33 	blx	r3
    a6d0:	ebfff946 	bl	8bf0 <rt_hw_interrupt_disable>
    a6d4:	e1a01004 	mov	r1, r4
    a6d8:	e5b12010 	ldr	r2, [r1, #16]!
    a6dc:	e1520001 	cmp	r2, r1
    a6e0:	e1a05000 	mov	r5, r0
    a6e4:	0a000006 	beq	a704 <rt_sem_release+0x54>
    a6e8:	e2420010 	sub	r0, r2, #16
    a6ec:	eb001636 	bl	ffcc <rt_thread_resume>
    a6f0:	e1a00005 	mov	r0, r5
    a6f4:	ebfff941 	bl	8c00 <rt_hw_interrupt_enable>
    a6f8:	eb0013ca 	bl	f628 <rt_schedule>
    a6fc:	e3a00000 	mov	r0, #0
    a700:	e8bd8038 	pop	{r3, r4, r5, pc}
    a704:	e1d4c1b8 	ldrh	ip, [r4, #24]
    a708:	e28c2001 	add	r2, ip, #1
    a70c:	e1c421b8 	strh	r2, [r4, #24]
    a710:	ebfff93a 	bl	8c00 <rt_hw_interrupt_enable>
    a714:	e3a00000 	mov	r0, #0
    a718:	e8bd8038 	pop	{r3, r4, r5, pc}

0000a71c <rt_sem_control>:
    a71c:	e92d45f0 	push	{r4, r5, r6, r7, r8, sl, lr}
    a720:	e2504000 	subs	r4, r0, #0
    a724:	e24dd00c 	sub	sp, sp, #12
    a728:	e1a05001 	mov	r5, r1
    a72c:	e1a06002 	mov	r6, r2
    a730:	0a00001b 	beq	a7a4 <rt_sem_control+0x88>
    a734:	e3550001 	cmp	r5, #1
    a738:	13e00000 	mvnne	r0, #0
    a73c:	1a000016 	bne	a79c <rt_sem_control+0x80>
    a740:	ebfff92a 	bl	8bf0 <rt_hw_interrupt_disable>
    a744:	e2845010 	add	r5, r4, #16
    a748:	e1a0a000 	mov	sl, r0
    a74c:	e5940010 	ldr	r0, [r4, #16]
    a750:	e1550000 	cmp	r5, r0
    a754:	0a00000b 	beq	a788 <rt_sem_control+0x6c>
    a758:	e3e08000 	mvn	r8, #0
    a75c:	ebfff923 	bl	8bf0 <rt_hw_interrupt_disable>
    a760:	e5952000 	ldr	r2, [r5]
    a764:	e582801c 	str	r8, [r2, #28]
    a768:	e1a07000 	mov	r7, r0
    a76c:	e2420010 	sub	r0, r2, #16
    a770:	eb001615 	bl	ffcc <rt_thread_resume>
    a774:	e1a00007 	mov	r0, r7
    a778:	ebfff920 	bl	8c00 <rt_hw_interrupt_enable>
    a77c:	e5951000 	ldr	r1, [r5]
    a780:	e1550001 	cmp	r5, r1
    a784:	1afffff4 	bne	a75c <rt_sem_control+0x40>
    a788:	e1a0000a 	mov	r0, sl
    a78c:	e1c461b8 	strh	r6, [r4, #24]
    a790:	ebfff91a 	bl	8c00 <rt_hw_interrupt_enable>
    a794:	eb0013a3 	bl	f628 <rt_schedule>
    a798:	e3a00000 	mov	r0, #0
    a79c:	e28dd00c 	add	sp, sp, #12
    a7a0:	e8bd85f0 	pop	{r4, r5, r6, r7, r8, sl, pc}
    a7a4:	e30c082c 	movw	r0, #51244	; 0xc82c
    a7a8:	e30c1a98 	movw	r1, #51864	; 0xca98
    a7ac:	e3400002 	movt	r0, #2
    a7b0:	e3401002 	movt	r1, #2
    a7b4:	e59f2018 	ldr	r2, [pc, #24]	; a7d4 <rt_sem_control+0xb8>
    a7b8:	e3a03f79 	mov	r3, #484	; 0x1e4
    a7bc:	e5cd4007 	strb	r4, [sp, #7]
    a7c0:	eb000f2e 	bl	e480 <rt_kprintf>
    a7c4:	e5dd3007 	ldrb	r3, [sp, #7]
    a7c8:	e3530000 	cmp	r3, #0
    a7cc:	0afffffc 	beq	a7c4 <rt_sem_control+0xa8>
    a7d0:	eaffffd7 	b	a734 <rt_sem_control+0x18>
    a7d4:	0002b590 	muleq	r2, r0, r5

0000a7d8 <rt_mutex_init>:
    a7d8:	e92d4070 	push	{r4, r5, r6, lr}
    a7dc:	e2504000 	subs	r4, r0, #0
    a7e0:	e24dd008 	sub	sp, sp, #8
    a7e4:	e1a06001 	mov	r6, r1
    a7e8:	e1a05002 	mov	r5, r2
    a7ec:	0a000011 	beq	a838 <rt_mutex_init+0x60>
    a7f0:	e1a00004 	mov	r0, r4
    a7f4:	e1a02006 	mov	r2, r6
    a7f8:	e3a01002 	mov	r1, #2
    a7fc:	eb001251 	bl	f148 <rt_object_init>
    a800:	e3a01000 	mov	r1, #0
    a804:	e2840010 	add	r0, r4, #16
    a808:	e3a0c001 	mov	ip, #1
    a80c:	e5840014 	str	r0, [r4, #20]
    a810:	e3e02000 	mvn	r2, #0
    a814:	e5840010 	str	r0, [r4, #16]
    a818:	e1a00001 	mov	r0, r1
    a81c:	e1c4c1b8 	strh	ip, [r4, #24]
    a820:	e584101c 	str	r1, [r4, #28]
    a824:	e5c4201a 	strb	r2, [r4, #26]
    a828:	e5c4101b 	strb	r1, [r4, #27]
    a82c:	e5c45007 	strb	r5, [r4, #7]
    a830:	e28dd008 	add	sp, sp, #8
    a834:	e8bd8070 	pop	{r4, r5, r6, pc}
    a838:	e30c082c 	movw	r0, #51244	; 0xc82c
    a83c:	e30c1ae0 	movw	r1, #51936	; 0xcae0
    a840:	e3400002 	movt	r0, #2
    a844:	e3401002 	movt	r1, #2
    a848:	e59f2018 	ldr	r2, [pc, #24]	; a868 <rt_mutex_init+0x90>
    a84c:	e300320f 	movw	r3, #527	; 0x20f
    a850:	e5cd4007 	strb	r4, [sp, #7]
    a854:	eb000f09 	bl	e480 <rt_kprintf>
    a858:	e5dd3007 	ldrb	r3, [sp, #7]
    a85c:	e3530000 	cmp	r3, #0
    a860:	0afffffc 	beq	a858 <rt_mutex_init+0x80>
    a864:	eaffffe1 	b	a7f0 <rt_mutex_init+0x18>
    a868:	0002b5a0 	andeq	fp, r2, r0, lsr #11

0000a86c <rt_mutex_detach>:
    a86c:	e92d40f0 	push	{r4, r5, r6, r7, lr}
    a870:	e2504000 	subs	r4, r0, #0
    a874:	e24dd00c 	sub	sp, sp, #12
    a878:	0a000014 	beq	a8d0 <rt_mutex_detach+0x64>
    a87c:	e5940010 	ldr	r0, [r4, #16]
    a880:	e2845010 	add	r5, r4, #16
    a884:	e1550000 	cmp	r5, r0
    a888:	0a00000b 	beq	a8bc <rt_mutex_detach+0x50>
    a88c:	e3e07000 	mvn	r7, #0
    a890:	ebfff8d6 	bl	8bf0 <rt_hw_interrupt_disable>
    a894:	e5952000 	ldr	r2, [r5]
    a898:	e582701c 	str	r7, [r2, #28]
    a89c:	e1a06000 	mov	r6, r0
    a8a0:	e2420010 	sub	r0, r2, #16
    a8a4:	eb0015c8 	bl	ffcc <rt_thread_resume>
    a8a8:	e1a00006 	mov	r0, r6
    a8ac:	ebfff8d3 	bl	8c00 <rt_hw_interrupt_enable>
    a8b0:	e5951000 	ldr	r1, [r5]
    a8b4:	e1550001 	cmp	r5, r1
    a8b8:	1afffff4 	bne	a890 <rt_mutex_detach+0x24>
    a8bc:	e1a00004 	mov	r0, r4
    a8c0:	eb00123c 	bl	f1b8 <rt_object_detach>
    a8c4:	e3a00000 	mov	r0, #0
    a8c8:	e28dd00c 	add	sp, sp, #12
    a8cc:	e8bd80f0 	pop	{r4, r5, r6, r7, pc}
    a8d0:	e30c082c 	movw	r0, #51244	; 0xc82c
    a8d4:	e30c1ae0 	movw	r1, #51936	; 0xcae0
    a8d8:	e3400002 	movt	r0, #2
    a8dc:	e3401002 	movt	r1, #2
    a8e0:	e59f2018 	ldr	r2, [pc, #24]	; a900 <rt_mutex_detach+0x94>
    a8e4:	e300322e 	movw	r3, #558	; 0x22e
    a8e8:	e5cd4007 	strb	r4, [sp, #7]
    a8ec:	eb000ee3 	bl	e480 <rt_kprintf>
    a8f0:	e5dd3007 	ldrb	r3, [sp, #7]
    a8f4:	e3530000 	cmp	r3, #0
    a8f8:	0afffffc 	beq	a8f0 <rt_mutex_detach+0x84>
    a8fc:	eaffffde 	b	a87c <rt_mutex_detach+0x10>
    a900:	0002b5b0 			; <UNDEFINED> instruction: 0x0002b5b0

0000a904 <rt_mutex_create>:
    a904:	e92d4070 	push	{r4, r5, r6, lr}
    a908:	e24dd008 	sub	sp, sp, #8
    a90c:	e1a06001 	mov	r6, r1
    a910:	e1a04000 	mov	r4, r0
    a914:	ebfff8b5 	bl	8bf0 <rt_hw_interrupt_disable>
    a918:	e1a05000 	mov	r5, r0
    a91c:	eb000963 	bl	ceb0 <rt_interrupt_get_nest>
    a920:	e3500000 	cmp	r0, #0
    a924:	1a000013 	bne	a978 <rt_mutex_create+0x74>
    a928:	e1a00005 	mov	r0, r5
    a92c:	ebfff8b3 	bl	8c00 <rt_hw_interrupt_enable>
    a930:	e3a00002 	mov	r0, #2
    a934:	e1a01004 	mov	r1, r4
    a938:	eb001242 	bl	f248 <rt_object_allocate>
    a93c:	e3500000 	cmp	r0, #0
    a940:	0a00000a 	beq	a970 <rt_mutex_create+0x6c>
    a944:	e280c010 	add	ip, r0, #16
    a948:	e3a01000 	mov	r1, #0
    a94c:	e3a0e001 	mov	lr, #1
    a950:	e3e02000 	mvn	r2, #0
    a954:	e580c014 	str	ip, [r0, #20]
    a958:	e580c010 	str	ip, [r0, #16]
    a95c:	e1c0e1b8 	strh	lr, [r0, #24]
    a960:	e580101c 	str	r1, [r0, #28]
    a964:	e5c0201a 	strb	r2, [r0, #26]
    a968:	e5c0101b 	strb	r1, [r0, #27]
    a96c:	e5c06007 	strb	r6, [r0, #7]
    a970:	e28dd008 	add	sp, sp, #8
    a974:	e8bd8070 	pop	{r4, r5, r6, pc}
    a978:	e59f103c 	ldr	r1, [pc, #60]	; a9bc <rt_mutex_create+0xb8>
    a97c:	e30c0a6c 	movw	r0, #51820	; 0xca6c
    a980:	e3400002 	movt	r0, #2
    a984:	eb000ebd 	bl	e480 <rt_kprintf>
    a988:	e30c082c 	movw	r0, #51244	; 0xc82c
    a98c:	e30c1b44 	movw	r1, #52036	; 0xcb44
    a990:	e3400002 	movt	r0, #2
    a994:	e3401002 	movt	r1, #2
    a998:	e59f201c 	ldr	r2, [pc, #28]	; a9bc <rt_mutex_create+0xb8>
    a99c:	e3003249 	movw	r3, #585	; 0x249
    a9a0:	e3a0c000 	mov	ip, #0
    a9a4:	e5cdc007 	strb	ip, [sp, #7]
    a9a8:	eb000eb4 	bl	e480 <rt_kprintf>
    a9ac:	e5dd3007 	ldrb	r3, [sp, #7]
    a9b0:	e3530000 	cmp	r3, #0
    a9b4:	0afffffc 	beq	a9ac <rt_mutex_create+0xa8>
    a9b8:	eaffffda 	b	a928 <rt_mutex_create+0x24>
    a9bc:	0002b5c0 	andeq	fp, r2, r0, asr #11

0000a9c0 <rt_mutex_delete>:
    a9c0:	e92d40f0 	push	{r4, r5, r6, r7, lr}
    a9c4:	e24dd00c 	sub	sp, sp, #12
    a9c8:	e1a04000 	mov	r4, r0
    a9cc:	ebfff887 	bl	8bf0 <rt_hw_interrupt_disable>
    a9d0:	e1a05000 	mov	r5, r0
    a9d4:	eb000935 	bl	ceb0 <rt_interrupt_get_nest>
    a9d8:	e3500000 	cmp	r0, #0
    a9dc:	1a000018 	bne	aa44 <rt_mutex_delete+0x84>
    a9e0:	e1a00005 	mov	r0, r5
    a9e4:	ebfff885 	bl	8c00 <rt_hw_interrupt_enable>
    a9e8:	e3540000 	cmp	r4, #0
    a9ec:	0a000028 	beq	aa94 <rt_mutex_delete+0xd4>
    a9f0:	e5941010 	ldr	r1, [r4, #16]
    a9f4:	e2845010 	add	r5, r4, #16
    a9f8:	e1550001 	cmp	r5, r1
    a9fc:	0a00000b 	beq	aa30 <rt_mutex_delete+0x70>
    aa00:	e3e07000 	mvn	r7, #0
    aa04:	ebfff879 	bl	8bf0 <rt_hw_interrupt_disable>
    aa08:	e595c000 	ldr	ip, [r5]
    aa0c:	e58c701c 	str	r7, [ip, #28]
    aa10:	e1a06000 	mov	r6, r0
    aa14:	e24c0010 	sub	r0, ip, #16
    aa18:	eb00156b 	bl	ffcc <rt_thread_resume>
    aa1c:	e1a00006 	mov	r0, r6
    aa20:	ebfff876 	bl	8c00 <rt_hw_interrupt_enable>
    aa24:	e5952000 	ldr	r2, [r5]
    aa28:	e1550002 	cmp	r5, r2
    aa2c:	1afffff4 	bne	aa04 <rt_mutex_delete+0x44>
    aa30:	e1a00004 	mov	r0, r4
    aa34:	eb00123f 	bl	f338 <rt_object_delete>
    aa38:	e3a00000 	mov	r0, #0
    aa3c:	e28dd00c 	add	sp, sp, #12
    aa40:	e8bd80f0 	pop	{r4, r5, r6, r7, pc}
    aa44:	e59f1078 	ldr	r1, [pc, #120]	; aac4 <rt_mutex_delete+0x104>
    aa48:	e30c0a6c 	movw	r0, #51820	; 0xca6c
    aa4c:	e3400002 	movt	r0, #2
    aa50:	eb000e8a 	bl	e480 <rt_kprintf>
    aa54:	e30c082c 	movw	r0, #51244	; 0xc82c
    aa58:	e30c1b44 	movw	r1, #52036	; 0xcb44
    aa5c:	e3400002 	movt	r0, #2
    aa60:	e3401002 	movt	r1, #2
    aa64:	e59f2058 	ldr	r2, [pc, #88]	; aac4 <rt_mutex_delete+0x104>
    aa68:	e300326a 	movw	r3, #618	; 0x26a
    aa6c:	e3a0c000 	mov	ip, #0
    aa70:	e5cdc007 	strb	ip, [sp, #7]
    aa74:	eb000e81 	bl	e480 <rt_kprintf>
    aa78:	e5dd3007 	ldrb	r3, [sp, #7]
    aa7c:	e3530000 	cmp	r3, #0
    aa80:	0afffffc 	beq	aa78 <rt_mutex_delete+0xb8>
    aa84:	e1a00005 	mov	r0, r5
    aa88:	ebfff85c 	bl	8c00 <rt_hw_interrupt_enable>
    aa8c:	e3540000 	cmp	r4, #0
    aa90:	1affffd6 	bne	a9f0 <rt_mutex_delete+0x30>
    aa94:	e30c082c 	movw	r0, #51244	; 0xc82c
    aa98:	e30c1ae0 	movw	r1, #51936	; 0xcae0
    aa9c:	e3400002 	movt	r0, #2
    aaa0:	e3401002 	movt	r1, #2
    aaa4:	e59f2018 	ldr	r2, [pc, #24]	; aac4 <rt_mutex_delete+0x104>
    aaa8:	e3a03f9b 	mov	r3, #620	; 0x26c
    aaac:	e5cd4007 	strb	r4, [sp, #7]
    aab0:	eb000e72 	bl	e480 <rt_kprintf>
    aab4:	e5dd0007 	ldrb	r0, [sp, #7]
    aab8:	e3500000 	cmp	r0, #0
    aabc:	0afffffc 	beq	aab4 <rt_mutex_delete+0xf4>
    aac0:	eaffffca 	b	a9f0 <rt_mutex_delete+0x30>
    aac4:	0002b5d0 	ldrdeq	fp, [r2], -r0

0000aac8 <rt_mutex_take>:
    aac8:	e92d40f0 	push	{r4, r5, r6, r7, lr}
    aacc:	e24dd014 	sub	sp, sp, #20
    aad0:	e1a04000 	mov	r4, r0
    aad4:	e58d1004 	str	r1, [sp, #4]
    aad8:	ebfff844 	bl	8bf0 <rt_hw_interrupt_disable>
    aadc:	e1a05000 	mov	r5, r0
    aae0:	eb00145c 	bl	fc58 <rt_thread_self>
    aae4:	e2506000 	subs	r6, r0, #0
    aae8:	0a000093 	beq	ad3c <rt_mutex_take+0x274>
    aaec:	ebfff83f 	bl	8bf0 <rt_hw_interrupt_disable>
    aaf0:	e1a06000 	mov	r6, r0
    aaf4:	eb0008ed 	bl	ceb0 <rt_interrupt_get_nest>
    aaf8:	e3500000 	cmp	r0, #0
    aafc:	1a000053 	bne	ac50 <rt_mutex_take+0x188>
    ab00:	e1a00006 	mov	r0, r6
    ab04:	ebfff83d 	bl	8c00 <rt_hw_interrupt_enable>
    ab08:	e1a00005 	mov	r0, r5
    ab0c:	ebfff83b 	bl	8c00 <rt_hw_interrupt_enable>
    ab10:	e3540000 	cmp	r4, #0
    ab14:	0a00007c 	beq	ad0c <rt_mutex_take+0x244>
    ab18:	ebfff834 	bl	8bf0 <rt_hw_interrupt_disable>
    ab1c:	e1a06000 	mov	r6, r0
    ab20:	eb00144c 	bl	fc58 <rt_thread_self>
    ab24:	e30f2df0 	movw	r2, #65008	; 0xfdf0
    ab28:	e3402002 	movt	r2, #2
    ab2c:	e5923000 	ldr	r3, [r2]
    ab30:	e3530000 	cmp	r3, #0
    ab34:	e1a05000 	mov	r5, r0
    ab38:	0a000001 	beq	ab44 <rt_mutex_take+0x7c>
    ab3c:	e1a00004 	mov	r0, r4
    ab40:	e12fff33 	blx	r3
    ab44:	e594001c 	ldr	r0, [r4, #28]
    ab48:	e3a0e000 	mov	lr, #0
    ab4c:	e585e02c 	str	lr, [r5, #44]	; 0x2c
    ab50:	e1500005 	cmp	r0, r5
    ab54:	0a000064 	beq	acec <rt_mutex_take+0x224>
    ab58:	e1d431b8 	ldrh	r3, [r4, #24]
    ab5c:	e3530000 	cmp	r3, #0
    ab60:	0a000014 	beq	abb8 <rt_mutex_take+0xf0>
    ab64:	e243e001 	sub	lr, r3, #1
    ab68:	e584501c 	str	r5, [r4, #28]
    ab6c:	e1c4e1b8 	strh	lr, [r4, #24]
    ab70:	e5d52031 	ldrb	r2, [r5, #49]	; 0x31
    ab74:	e5d4101b 	ldrb	r1, [r4, #27]
    ab78:	e5c4201a 	strb	r2, [r4, #26]
    ab7c:	e2810001 	add	r0, r1, #1
    ab80:	e5c4001b 	strb	r0, [r4, #27]
    ab84:	e1a00006 	mov	r0, r6
    ab88:	ebfff81c 	bl	8c00 <rt_hw_interrupt_enable>
    ab8c:	e30f0dec 	movw	r0, #65004	; 0xfdec
    ab90:	e3400002 	movt	r0, #2
    ab94:	e5903000 	ldr	r3, [r0]
    ab98:	e3530000 	cmp	r3, #0
    ab9c:	01a00003 	moveq	r0, r3
    aba0:	0a000002 	beq	abb0 <rt_mutex_take+0xe8>
    aba4:	e1a00004 	mov	r0, r4
    aba8:	e12fff33 	blx	r3
    abac:	e3a00000 	mov	r0, #0
    abb0:	e28dd014 	add	sp, sp, #20
    abb4:	e8bd80f0 	pop	{r4, r5, r6, r7, pc}
    abb8:	e59d3004 	ldr	r3, [sp, #4]
    abbc:	e3530000 	cmp	r3, #0
    abc0:	0a00006d 	beq	ad7c <rt_mutex_take+0x2b4>
    abc4:	e5d57031 	ldrb	r7, [r5, #49]	; 0x31
    abc8:	e5d0c031 	ldrb	ip, [r0, #49]	; 0x31
    abcc:	e157000c 	cmp	r7, ip
    abd0:	3a000049 	bcc	acfc <rt_mutex_take+0x234>
    abd4:	e5d47007 	ldrb	r7, [r4, #7]
    abd8:	e1a00005 	mov	r0, r5
    abdc:	eb0014ad 	bl	fe98 <rt_thread_suspend>
    abe0:	e2841010 	add	r1, r4, #16
    abe4:	e3570000 	cmp	r7, #0
    abe8:	1a000029 	bne	ac94 <rt_mutex_take+0x1cc>
    abec:	e594c014 	ldr	ip, [r4, #20]
    abf0:	e2853010 	add	r3, r5, #16
    abf4:	e585c014 	str	ip, [r5, #20]
    abf8:	e58c3000 	str	r3, [ip]
    abfc:	e5843014 	str	r3, [r4, #20]
    ac00:	e5851010 	str	r1, [r5, #16]
    ac04:	e59d2004 	ldr	r2, [sp, #4]
    ac08:	e3520000 	cmp	r2, #0
    ac0c:	da000006 	ble	ac2c <rt_mutex_take+0x164>
    ac10:	e2857048 	add	r7, r5, #72	; 0x48
    ac14:	e3a01000 	mov	r1, #0
    ac18:	e28d2004 	add	r2, sp, #4
    ac1c:	e1a00007 	mov	r0, r7
    ac20:	eb0016a8 	bl	106c8 <rt_timer_control>
    ac24:	e1a00007 	mov	r0, r7
    ac28:	eb001620 	bl	104b0 <rt_timer_start>
    ac2c:	e1a00006 	mov	r0, r6
    ac30:	ebfff7f2 	bl	8c00 <rt_hw_interrupt_enable>
    ac34:	eb00127b 	bl	f628 <rt_schedule>
    ac38:	e595002c 	ldr	r0, [r5, #44]	; 0x2c
    ac3c:	e3500000 	cmp	r0, #0
    ac40:	1affffda 	bne	abb0 <rt_mutex_take+0xe8>
    ac44:	ebfff7e9 	bl	8bf0 <rt_hw_interrupt_disable>
    ac48:	e1a06000 	mov	r6, r0
    ac4c:	eaffffcc 	b	ab84 <rt_mutex_take+0xbc>
    ac50:	e59f113c 	ldr	r1, [pc, #316]	; ad94 <rt_mutex_take+0x2cc>
    ac54:	e30c0a6c 	movw	r0, #51820	; 0xca6c
    ac58:	e3400002 	movt	r0, #2
    ac5c:	eb000e07 	bl	e480 <rt_kprintf>
    ac60:	e30c082c 	movw	r0, #51244	; 0xc82c
    ac64:	e30c1b44 	movw	r1, #52036	; 0xcb44
    ac68:	e3400002 	movt	r0, #2
    ac6c:	e3401002 	movt	r1, #2
    ac70:	e59f211c 	ldr	r2, [pc, #284]	; ad94 <rt_mutex_take+0x2cc>
    ac74:	e3a03fa2 	mov	r3, #648	; 0x288
    ac78:	e3a0c000 	mov	ip, #0
    ac7c:	e5cdc00f 	strb	ip, [sp, #15]
    ac80:	eb000dfe 	bl	e480 <rt_kprintf>
    ac84:	e5dd000f 	ldrb	r0, [sp, #15]
    ac88:	e3500000 	cmp	r0, #0
    ac8c:	0afffffc 	beq	ac84 <rt_mutex_take+0x1bc>
    ac90:	eaffff9a 	b	ab00 <rt_mutex_take+0x38>
    ac94:	e3570001 	cmp	r7, #1
    ac98:	1affffd9 	bne	ac04 <rt_mutex_take+0x13c>
    ac9c:	e5943010 	ldr	r3, [r4, #16]
    aca0:	e1510003 	cmp	r1, r3
    aca4:	0affffd0 	beq	abec <rt_mutex_take+0x124>
    aca8:	e5d50031 	ldrb	r0, [r5, #49]	; 0x31
    acac:	e5d32021 	ldrb	r2, [r3, #33]	; 0x21
    acb0:	e1520000 	cmp	r2, r0
    acb4:	8a000005 	bhi	acd0 <rt_mutex_take+0x208>
    acb8:	e5933000 	ldr	r3, [r3]
    acbc:	e1510003 	cmp	r1, r3
    acc0:	0affffc9 	beq	abec <rt_mutex_take+0x124>
    acc4:	e5d3e021 	ldrb	lr, [r3, #33]	; 0x21
    acc8:	e15e0000 	cmp	lr, r0
    accc:	9afffff9 	bls	acb8 <rt_mutex_take+0x1f0>
    acd0:	e5931004 	ldr	r1, [r3, #4]
    acd4:	e2850010 	add	r0, r5, #16
    acd8:	e5851014 	str	r1, [r5, #20]
    acdc:	e5810000 	str	r0, [r1]
    ace0:	e5830004 	str	r0, [r3, #4]
    ace4:	e5853010 	str	r3, [r5, #16]
    ace8:	eaffffc5 	b	ac04 <rt_mutex_take+0x13c>
    acec:	e5d4c01b 	ldrb	ip, [r4, #27]
    acf0:	e28c3001 	add	r3, ip, #1
    acf4:	e5c4301b 	strb	r3, [r4, #27]
    acf8:	eaffffa1 	b	ab84 <rt_mutex_take+0xbc>
    acfc:	e3a01002 	mov	r1, #2
    ad00:	e2852031 	add	r2, r5, #49	; 0x31
    ad04:	eb00150b 	bl	10138 <rt_thread_control>
    ad08:	eaffffb1 	b	abd4 <rt_mutex_take+0x10c>
    ad0c:	e30c082c 	movw	r0, #51244	; 0xc82c
    ad10:	e30c1ae0 	movw	r1, #51936	; 0xcae0
    ad14:	e3400002 	movt	r0, #2
    ad18:	e3401002 	movt	r1, #2
    ad1c:	e59f2070 	ldr	r2, [pc, #112]	; ad94 <rt_mutex_take+0x2cc>
    ad20:	e300328a 	movw	r3, #650	; 0x28a
    ad24:	e5cd400f 	strb	r4, [sp, #15]
    ad28:	eb000dd4 	bl	e480 <rt_kprintf>
    ad2c:	e5dd100f 	ldrb	r1, [sp, #15]
    ad30:	e3510000 	cmp	r1, #0
    ad34:	0afffffc 	beq	ad2c <rt_mutex_take+0x264>
    ad38:	eaffff76 	b	ab18 <rt_mutex_take+0x50>
    ad3c:	e59f1050 	ldr	r1, [pc, #80]	; ad94 <rt_mutex_take+0x2cc>
    ad40:	e30c0aa8 	movw	r0, #51880	; 0xcaa8
    ad44:	e3400002 	movt	r0, #2
    ad48:	eb000dcc 	bl	e480 <rt_kprintf>
    ad4c:	e30c082c 	movw	r0, #51244	; 0xc82c
    ad50:	e30c1b44 	movw	r1, #52036	; 0xcb44
    ad54:	e3400002 	movt	r0, #2
    ad58:	e3401002 	movt	r1, #2
    ad5c:	e59f2030 	ldr	r2, [pc, #48]	; ad94 <rt_mutex_take+0x2cc>
    ad60:	e3a03fa2 	mov	r3, #648	; 0x288
    ad64:	e5cd600f 	strb	r6, [sp, #15]
    ad68:	eb000dc4 	bl	e480 <rt_kprintf>
    ad6c:	e5dd300f 	ldrb	r3, [sp, #15]
    ad70:	e3530000 	cmp	r3, #0
    ad74:	0afffffc 	beq	ad6c <rt_mutex_take+0x2a4>
    ad78:	eaffff5b 	b	aaec <rt_mutex_take+0x24>
    ad7c:	e3e04001 	mvn	r4, #1
    ad80:	e1a00006 	mov	r0, r6
    ad84:	e585402c 	str	r4, [r5, #44]	; 0x2c
    ad88:	ebfff79c 	bl	8c00 <rt_hw_interrupt_enable>
    ad8c:	e1a00004 	mov	r0, r4
    ad90:	eaffff86 	b	abb0 <rt_mutex_take+0xe8>
    ad94:	0002b5e0 	andeq	fp, r2, r0, ror #11

0000ad98 <rt_mutex_release>:
    ad98:	e92d4070 	push	{r4, r5, r6, lr}
    ad9c:	e24dd008 	sub	sp, sp, #8
    ada0:	e1a04000 	mov	r4, r0
    ada4:	ebfff791 	bl	8bf0 <rt_hw_interrupt_disable>
    ada8:	e1a05000 	mov	r5, r0
    adac:	eb0013a9 	bl	fc58 <rt_thread_self>
    adb0:	e2506000 	subs	r6, r0, #0
    adb4:	0a000058 	beq	af1c <rt_mutex_release+0x184>
    adb8:	ebfff78c 	bl	8bf0 <rt_hw_interrupt_disable>
    adbc:	e1a06000 	mov	r6, r0
    adc0:	eb00083a 	bl	ceb0 <rt_interrupt_get_nest>
    adc4:	e3500000 	cmp	r0, #0
    adc8:	1a00003c 	bne	aec0 <rt_mutex_release+0x128>
    adcc:	e1a00006 	mov	r0, r6
    add0:	ebfff78a 	bl	8c00 <rt_hw_interrupt_enable>
    add4:	e1a00005 	mov	r0, r5
    add8:	ebfff788 	bl	8c00 <rt_hw_interrupt_enable>
    addc:	eb00139d 	bl	fc58 <rt_thread_self>
    ade0:	e1a06000 	mov	r6, r0
    ade4:	ebfff781 	bl	8bf0 <rt_hw_interrupt_disable>
    ade8:	e30f1de8 	movw	r1, #65000	; 0xfde8
    adec:	e3401002 	movt	r1, #2
    adf0:	e5913000 	ldr	r3, [r1]
    adf4:	e3530000 	cmp	r3, #0
    adf8:	e1a05000 	mov	r5, r0
    adfc:	0a000001 	beq	ae08 <rt_mutex_release+0x70>
    ae00:	e1a00004 	mov	r0, r4
    ae04:	e12fff33 	blx	r3
    ae08:	e594201c 	ldr	r2, [r4, #28]
    ae0c:	e1520006 	cmp	r2, r6
    ae10:	1a00003b 	bne	af04 <rt_mutex_release+0x16c>
    ae14:	e5d4c01b 	ldrb	ip, [r4, #27]
    ae18:	e24c3001 	sub	r3, ip, #1
    ae1c:	e6efe073 	uxtb	lr, r3
    ae20:	e5c4e01b 	strb	lr, [r4, #27]
    ae24:	e35e0000 	cmp	lr, #0
    ae28:	1a00001f 	bne	aeac <rt_mutex_release+0x114>
    ae2c:	e5d4001a 	ldrb	r0, [r4, #26]
    ae30:	e5d61031 	ldrb	r1, [r6, #49]	; 0x31
    ae34:	e1500001 	cmp	r0, r1
    ae38:	0a000003 	beq	ae4c <rt_mutex_release+0xb4>
    ae3c:	e1a00006 	mov	r0, r6
    ae40:	e3a01002 	mov	r1, #2
    ae44:	e284201a 	add	r2, r4, #26
    ae48:	eb0014ba 	bl	10138 <rt_thread_control>
    ae4c:	e1a0e004 	mov	lr, r4
    ae50:	e5be2010 	ldr	r2, [lr, #16]!
    ae54:	e152000e 	cmp	r2, lr
    ae58:	0a00000c 	beq	ae90 <rt_mutex_release+0xf8>
    ae5c:	e2420010 	sub	r0, r2, #16
    ae60:	e584001c 	str	r0, [r4, #28]
    ae64:	e5d22021 	ldrb	r2, [r2, #33]	; 0x21
    ae68:	e5d4c01b 	ldrb	ip, [r4, #27]
    ae6c:	e5c4201a 	strb	r2, [r4, #26]
    ae70:	e28c3001 	add	r3, ip, #1
    ae74:	e5c4301b 	strb	r3, [r4, #27]
    ae78:	eb001453 	bl	ffcc <rt_thread_resume>
    ae7c:	e1a00005 	mov	r0, r5
    ae80:	ebfff75e 	bl	8c00 <rt_hw_interrupt_enable>
    ae84:	eb0011e7 	bl	f628 <rt_schedule>
    ae88:	e3a00000 	mov	r0, #0
    ae8c:	ea000009 	b	aeb8 <rt_mutex_release+0x120>
    ae90:	e1d4e1b8 	ldrh	lr, [r4, #24]
    ae94:	e3a03000 	mov	r3, #0
    ae98:	e3e01000 	mvn	r1, #0
    ae9c:	e584301c 	str	r3, [r4, #28]
    aea0:	e28e0001 	add	r0, lr, #1
    aea4:	e5c4101a 	strb	r1, [r4, #26]
    aea8:	e1c401b8 	strh	r0, [r4, #24]
    aeac:	e1a00005 	mov	r0, r5
    aeb0:	ebfff752 	bl	8c00 <rt_hw_interrupt_enable>
    aeb4:	e3a00000 	mov	r0, #0
    aeb8:	e28dd008 	add	sp, sp, #8
    aebc:	e8bd8070 	pop	{r4, r5, r6, pc}
    aec0:	e59f1094 	ldr	r1, [pc, #148]	; af5c <rt_mutex_release+0x1c4>
    aec4:	e30c0a6c 	movw	r0, #51820	; 0xca6c
    aec8:	e3400002 	movt	r0, #2
    aecc:	eb000d6b 	bl	e480 <rt_kprintf>
    aed0:	e30c082c 	movw	r0, #51244	; 0xc82c
    aed4:	e30c1b44 	movw	r1, #52036	; 0xcb44
    aed8:	e3400002 	movt	r0, #2
    aedc:	e3401002 	movt	r1, #2
    aee0:	e59f2074 	ldr	r2, [pc, #116]	; af5c <rt_mutex_release+0x1c4>
    aee4:	e300330d 	movw	r3, #781	; 0x30d
    aee8:	e3a0c000 	mov	ip, #0
    aeec:	e5cdc007 	strb	ip, [sp, #7]
    aef0:	eb000d62 	bl	e480 <rt_kprintf>
    aef4:	e5dd0007 	ldrb	r0, [sp, #7]
    aef8:	e3500000 	cmp	r0, #0
    aefc:	0afffffc 	beq	aef4 <rt_mutex_release+0x15c>
    af00:	eaffffb1 	b	adcc <rt_mutex_release+0x34>
    af04:	e3e04000 	mvn	r4, #0
    af08:	e1a00005 	mov	r0, r5
    af0c:	e586402c 	str	r4, [r6, #44]	; 0x2c
    af10:	ebfff73a 	bl	8c00 <rt_hw_interrupt_enable>
    af14:	e1a00004 	mov	r0, r4
    af18:	eaffffe6 	b	aeb8 <rt_mutex_release+0x120>
    af1c:	e59f1038 	ldr	r1, [pc, #56]	; af5c <rt_mutex_release+0x1c4>
    af20:	e30c0aa8 	movw	r0, #51880	; 0xcaa8
    af24:	e3400002 	movt	r0, #2
    af28:	eb000d54 	bl	e480 <rt_kprintf>
    af2c:	e30c082c 	movw	r0, #51244	; 0xc82c
    af30:	e30c1b44 	movw	r1, #52036	; 0xcb44
    af34:	e3400002 	movt	r0, #2
    af38:	e3401002 	movt	r1, #2
    af3c:	e59f2018 	ldr	r2, [pc, #24]	; af5c <rt_mutex_release+0x1c4>
    af40:	e300330d 	movw	r3, #781	; 0x30d
    af44:	e5cd6007 	strb	r6, [sp, #7]
    af48:	eb000d4c 	bl	e480 <rt_kprintf>
    af4c:	e5dd3007 	ldrb	r3, [sp, #7]
    af50:	e3530000 	cmp	r3, #0
    af54:	0afffffc 	beq	af4c <rt_mutex_release+0x1b4>
    af58:	eaffff96 	b	adb8 <rt_mutex_release+0x20>
    af5c:	0002b5f0 	strdeq	fp, [r2], -r0

0000af60 <rt_mutex_control>:
    af60:	e3e00000 	mvn	r0, #0
    af64:	e12fff1e 	bx	lr

0000af68 <rt_event_init>:
    af68:	e92d4070 	push	{r4, r5, r6, lr}
    af6c:	e2504000 	subs	r4, r0, #0
    af70:	e24dd008 	sub	sp, sp, #8
    af74:	e1a06001 	mov	r6, r1
    af78:	e1a05002 	mov	r5, r2
    af7c:	0a00000c 	beq	afb4 <rt_event_init+0x4c>
    af80:	e1a00004 	mov	r0, r4
    af84:	e1a02006 	mov	r2, r6
    af88:	e3a01003 	mov	r1, #3
    af8c:	eb00106d 	bl	f148 <rt_object_init>
    af90:	e3a01000 	mov	r1, #0
    af94:	e2842010 	add	r2, r4, #16
    af98:	e5c45007 	strb	r5, [r4, #7]
    af9c:	e5842014 	str	r2, [r4, #20]
    afa0:	e1a00001 	mov	r0, r1
    afa4:	e5842010 	str	r2, [r4, #16]
    afa8:	e5841018 	str	r1, [r4, #24]
    afac:	e28dd008 	add	sp, sp, #8
    afb0:	e8bd8070 	pop	{r4, r5, r6, pc}
    afb4:	e30c082c 	movw	r0, #51244	; 0xc82c
    afb8:	e30c1af4 	movw	r1, #51956	; 0xcaf4
    afbc:	e3400002 	movt	r0, #2
    afc0:	e3401002 	movt	r1, #2
    afc4:	e59f2018 	ldr	r2, [pc, #24]	; afe4 <rt_event_init+0x7c>
    afc8:	e300337b 	movw	r3, #891	; 0x37b
    afcc:	e5cd4007 	strb	r4, [sp, #7]
    afd0:	eb000d2a 	bl	e480 <rt_kprintf>
    afd4:	e5dd3007 	ldrb	r3, [sp, #7]
    afd8:	e3530000 	cmp	r3, #0
    afdc:	0afffffc 	beq	afd4 <rt_event_init+0x6c>
    afe0:	eaffffe6 	b	af80 <rt_event_init+0x18>
    afe4:	0002b604 	andeq	fp, r2, r4, lsl #12

0000afe8 <rt_event_detach>:
    afe8:	e92d40f0 	push	{r4, r5, r6, r7, lr}
    afec:	e2504000 	subs	r4, r0, #0
    aff0:	e24dd00c 	sub	sp, sp, #12
    aff4:	0a000014 	beq	b04c <rt_event_detach+0x64>
    aff8:	e5940010 	ldr	r0, [r4, #16]
    affc:	e2845010 	add	r5, r4, #16
    b000:	e1550000 	cmp	r5, r0
    b004:	0a00000b 	beq	b038 <rt_event_detach+0x50>
    b008:	e3e07000 	mvn	r7, #0
    b00c:	ebfff6f7 	bl	8bf0 <rt_hw_interrupt_disable>
    b010:	e5952000 	ldr	r2, [r5]
    b014:	e582701c 	str	r7, [r2, #28]
    b018:	e1a06000 	mov	r6, r0
    b01c:	e2420010 	sub	r0, r2, #16
    b020:	eb0013e9 	bl	ffcc <rt_thread_resume>
    b024:	e1a00006 	mov	r0, r6
    b028:	ebfff6f4 	bl	8c00 <rt_hw_interrupt_enable>
    b02c:	e5951000 	ldr	r1, [r5]
    b030:	e1550001 	cmp	r5, r1
    b034:	1afffff4 	bne	b00c <rt_event_detach+0x24>
    b038:	e1a00004 	mov	r0, r4
    b03c:	eb00105d 	bl	f1b8 <rt_object_detach>
    b040:	e3a00000 	mov	r0, #0
    b044:	e28dd00c 	add	sp, sp, #12
    b048:	e8bd80f0 	pop	{r4, r5, r6, r7, pc}
    b04c:	e30c082c 	movw	r0, #51244	; 0xc82c
    b050:	e30c1af4 	movw	r1, #51956	; 0xcaf4
    b054:	e3400002 	movt	r0, #2
    b058:	e3401002 	movt	r1, #2
    b05c:	e59f2018 	ldr	r2, [pc, #24]	; b07c <rt_event_detach+0x94>
    b060:	e3003397 	movw	r3, #919	; 0x397
    b064:	e5cd4007 	strb	r4, [sp, #7]
    b068:	eb000d04 	bl	e480 <rt_kprintf>
    b06c:	e5dd3007 	ldrb	r3, [sp, #7]
    b070:	e3530000 	cmp	r3, #0
    b074:	0afffffc 	beq	b06c <rt_event_detach+0x84>
    b078:	eaffffde 	b	aff8 <rt_event_detach+0x10>
    b07c:	0002b614 	andeq	fp, r2, r4, lsl r6

0000b080 <rt_event_create>:
    b080:	e92d4070 	push	{r4, r5, r6, lr}
    b084:	e24dd008 	sub	sp, sp, #8
    b088:	e1a06001 	mov	r6, r1
    b08c:	e1a04000 	mov	r4, r0
    b090:	ebfff6d6 	bl	8bf0 <rt_hw_interrupt_disable>
    b094:	e1a05000 	mov	r5, r0
    b098:	eb000784 	bl	ceb0 <rt_interrupt_get_nest>
    b09c:	e3500000 	cmp	r0, #0
    b0a0:	1a00000e 	bne	b0e0 <rt_event_create+0x60>
    b0a4:	e1a00005 	mov	r0, r5
    b0a8:	ebfff6d4 	bl	8c00 <rt_hw_interrupt_enable>
    b0ac:	e3a00003 	mov	r0, #3
    b0b0:	e1a01004 	mov	r1, r4
    b0b4:	eb001063 	bl	f248 <rt_object_allocate>
    b0b8:	e3500000 	cmp	r0, #0
    b0bc:	0a000005 	beq	b0d8 <rt_event_create+0x58>
    b0c0:	e2802010 	add	r2, r0, #16
    b0c4:	e3a01000 	mov	r1, #0
    b0c8:	e5c06007 	strb	r6, [r0, #7]
    b0cc:	e5802014 	str	r2, [r0, #20]
    b0d0:	e5802010 	str	r2, [r0, #16]
    b0d4:	e5801018 	str	r1, [r0, #24]
    b0d8:	e28dd008 	add	sp, sp, #8
    b0dc:	e8bd8070 	pop	{r4, r5, r6, pc}
    b0e0:	e59f103c 	ldr	r1, [pc, #60]	; b124 <rt_event_create+0xa4>
    b0e4:	e30c0a6c 	movw	r0, #51820	; 0xca6c
    b0e8:	e3400002 	movt	r0, #2
    b0ec:	eb000ce3 	bl	e480 <rt_kprintf>
    b0f0:	e30c082c 	movw	r0, #51244	; 0xc82c
    b0f4:	e30c1b44 	movw	r1, #52036	; 0xcb44
    b0f8:	e3400002 	movt	r0, #2
    b0fc:	e3401002 	movt	r1, #2
    b100:	e59f201c 	ldr	r2, [pc, #28]	; b124 <rt_event_create+0xa4>
    b104:	e3a03e3b 	mov	r3, #944	; 0x3b0
    b108:	e3a0c000 	mov	ip, #0
    b10c:	e5cdc007 	strb	ip, [sp, #7]
    b110:	eb000cda 	bl	e480 <rt_kprintf>
    b114:	e5dd3007 	ldrb	r3, [sp, #7]
    b118:	e3530000 	cmp	r3, #0
    b11c:	0afffffc 	beq	b114 <rt_event_create+0x94>
    b120:	eaffffdf 	b	b0a4 <rt_event_create+0x24>
    b124:	0002b624 	andeq	fp, r2, r4, lsr #12

0000b128 <rt_event_delete>:
    b128:	e92d40f0 	push	{r4, r5, r6, r7, lr}
    b12c:	e2504000 	subs	r4, r0, #0
    b130:	e24dd00c 	sub	sp, sp, #12
    b134:	0a00002c 	beq	b1ec <rt_event_delete+0xc4>
    b138:	ebfff6ac 	bl	8bf0 <rt_hw_interrupt_disable>
    b13c:	e1a05000 	mov	r5, r0
    b140:	eb00075a 	bl	ceb0 <rt_interrupt_get_nest>
    b144:	e3500000 	cmp	r0, #0
    b148:	1a000016 	bne	b1a8 <rt_event_delete+0x80>
    b14c:	e1a00005 	mov	r0, r5
    b150:	e2845010 	add	r5, r4, #16
    b154:	ebfff6a9 	bl	8c00 <rt_hw_interrupt_enable>
    b158:	e5941010 	ldr	r1, [r4, #16]
    b15c:	e1550001 	cmp	r5, r1
    b160:	0a00000b 	beq	b194 <rt_event_delete+0x6c>
    b164:	e3e07000 	mvn	r7, #0
    b168:	ebfff6a0 	bl	8bf0 <rt_hw_interrupt_disable>
    b16c:	e5953000 	ldr	r3, [r5]
    b170:	e583701c 	str	r7, [r3, #28]
    b174:	e1a06000 	mov	r6, r0
    b178:	e2430010 	sub	r0, r3, #16
    b17c:	eb001392 	bl	ffcc <rt_thread_resume>
    b180:	e1a00006 	mov	r0, r6
    b184:	ebfff69d 	bl	8c00 <rt_hw_interrupt_enable>
    b188:	e5952000 	ldr	r2, [r5]
    b18c:	e1550002 	cmp	r5, r2
    b190:	1afffff4 	bne	b168 <rt_event_delete+0x40>
    b194:	e1a00004 	mov	r0, r4
    b198:	eb001066 	bl	f338 <rt_object_delete>
    b19c:	e3a00000 	mov	r0, #0
    b1a0:	e28dd00c 	add	sp, sp, #12
    b1a4:	e8bd80f0 	pop	{r4, r5, r6, r7, pc}
    b1a8:	e59f106c 	ldr	r1, [pc, #108]	; b21c <rt_event_delete+0xf4>
    b1ac:	e30c0a6c 	movw	r0, #51820	; 0xca6c
    b1b0:	e3400002 	movt	r0, #2
    b1b4:	eb000cb1 	bl	e480 <rt_kprintf>
    b1b8:	e30c082c 	movw	r0, #51244	; 0xc82c
    b1bc:	e30c1b44 	movw	r1, #52036	; 0xcb44
    b1c0:	e3400002 	movt	r0, #2
    b1c4:	e3401002 	movt	r1, #2
    b1c8:	e59f204c 	ldr	r2, [pc, #76]	; b21c <rt_event_delete+0xf4>
    b1cc:	e3a03e3d 	mov	r3, #976	; 0x3d0
    b1d0:	e3a0c000 	mov	ip, #0
    b1d4:	e5cdc007 	strb	ip, [sp, #7]
    b1d8:	eb000ca8 	bl	e480 <rt_kprintf>
    b1dc:	e5dd0007 	ldrb	r0, [sp, #7]
    b1e0:	e3500000 	cmp	r0, #0
    b1e4:	0afffffc 	beq	b1dc <rt_event_delete+0xb4>
    b1e8:	eaffffd7 	b	b14c <rt_event_delete+0x24>
    b1ec:	e30c082c 	movw	r0, #51244	; 0xc82c
    b1f0:	e30c1af4 	movw	r1, #51956	; 0xcaf4
    b1f4:	e3400002 	movt	r0, #2
    b1f8:	e3401002 	movt	r1, #2
    b1fc:	e59f2018 	ldr	r2, [pc, #24]	; b21c <rt_event_delete+0xf4>
    b200:	e30033ce 	movw	r3, #974	; 0x3ce
    b204:	e5cd4007 	strb	r4, [sp, #7]
    b208:	eb000c9c 	bl	e480 <rt_kprintf>
    b20c:	e5dd3007 	ldrb	r3, [sp, #7]
    b210:	e3530000 	cmp	r3, #0
    b214:	0afffffc 	beq	b20c <rt_event_delete+0xe4>
    b218:	eaffffc6 	b	b138 <rt_event_delete+0x10>
    b21c:	0002b634 	andeq	fp, r2, r4, lsr r6

0000b220 <rt_event_send>:
    b220:	e92d41f0 	push	{r4, r5, r6, r7, r8, lr}
    b224:	e2504000 	subs	r4, r0, #0
    b228:	e24dd008 	sub	sp, sp, #8
    b22c:	e1a05001 	mov	r5, r1
    b230:	0a00003c 	beq	b328 <rt_event_send+0x108>
    b234:	e3550000 	cmp	r5, #0
    b238:	03e00000 	mvneq	r0, #0
    b23c:	0a000020 	beq	b2c4 <rt_event_send+0xa4>
    b240:	e30f0de8 	movw	r0, #65000	; 0xfde8
    b244:	e3400002 	movt	r0, #2
    b248:	e5903000 	ldr	r3, [r0]
    b24c:	e3530000 	cmp	r3, #0
    b250:	0a000001 	beq	b25c <rt_event_send+0x3c>
    b254:	e1a00004 	mov	r0, r4
    b258:	e12fff33 	blx	r3
    b25c:	ebfff663 	bl	8bf0 <rt_hw_interrupt_disable>
    b260:	e5943010 	ldr	r3, [r4, #16]
    b264:	e2846010 	add	r6, r4, #16
    b268:	e5942018 	ldr	r2, [r4, #24]
    b26c:	e1560003 	cmp	r6, r3
    b270:	e1825005 	orr	r5, r2, r5
    b274:	e5845018 	str	r5, [r4, #24]
    b278:	e1a08000 	mov	r8, r0
    b27c:	0a000026 	beq	b31c <rt_event_send+0xfc>
    b280:	e3a05000 	mov	r5, #0
    b284:	e5d3202c 	ldrb	r2, [r3, #44]	; 0x2c
    b288:	e3120001 	tst	r2, #1
    b28c:	0a00000e 	beq	b2cc <rt_event_send+0xac>
    b290:	e593e028 	ldr	lr, [r3, #40]	; 0x28
    b294:	e5941018 	ldr	r1, [r4, #24]
    b298:	e00ec001 	and	ip, lr, r1
    b29c:	e15e000c 	cmp	lr, ip
    b2a0:	0a000010 	beq	b2e8 <rt_event_send+0xc8>
    b2a4:	e5933000 	ldr	r3, [r3]
    b2a8:	e1560003 	cmp	r6, r3
    b2ac:	1afffff4 	bne	b284 <rt_event_send+0x64>
    b2b0:	e1a00008 	mov	r0, r8
    b2b4:	ebfff651 	bl	8c00 <rt_hw_interrupt_enable>
    b2b8:	e3550001 	cmp	r5, #1
    b2bc:	13a00000 	movne	r0, #0
    b2c0:	0a000012 	beq	b310 <rt_event_send+0xf0>
    b2c4:	e28dd008 	add	sp, sp, #8
    b2c8:	e8bd81f0 	pop	{r4, r5, r6, r7, r8, pc}
    b2cc:	e3120002 	tst	r2, #2
    b2d0:	0afffff3 	beq	b2a4 <rt_event_send+0x84>
    b2d4:	e5941018 	ldr	r1, [r4, #24]
    b2d8:	e5930028 	ldr	r0, [r3, #40]	; 0x28
    b2dc:	e0110000 	ands	r0, r1, r0
    b2e0:	0affffef 	beq	b2a4 <rt_event_send+0x84>
    b2e4:	e5830028 	str	r0, [r3, #40]	; 0x28
    b2e8:	e3120004 	tst	r2, #4
    b2ec:	e5937000 	ldr	r7, [r3]
    b2f0:	e2430010 	sub	r0, r3, #16
    b2f4:	e3a05001 	mov	r5, #1
    b2f8:	15932028 	ldrne	r2, [r3, #40]	; 0x28
    b2fc:	11c11002 	bicne	r1, r1, r2
    b300:	15841018 	strne	r1, [r4, #24]
    b304:	eb001330 	bl	ffcc <rt_thread_resume>
    b308:	e1a03007 	mov	r3, r7
    b30c:	eaffffe5 	b	b2a8 <rt_event_send+0x88>
    b310:	eb0010c4 	bl	f628 <rt_schedule>
    b314:	e3a00000 	mov	r0, #0
    b318:	eaffffe9 	b	b2c4 <rt_event_send+0xa4>
    b31c:	ebfff637 	bl	8c00 <rt_hw_interrupt_enable>
    b320:	e3a00000 	mov	r0, #0
    b324:	eaffffe6 	b	b2c4 <rt_event_send+0xa4>
    b328:	e30c082c 	movw	r0, #51244	; 0xc82c
    b32c:	e30c1af4 	movw	r1, #51956	; 0xcaf4
    b330:	e3400002 	movt	r0, #2
    b334:	e3401002 	movt	r1, #2
    b338:	e59f2018 	ldr	r2, [pc, #24]	; b358 <rt_event_send+0x138>
    b33c:	e30033ef 	movw	r3, #1007	; 0x3ef
    b340:	e5cd4007 	strb	r4, [sp, #7]
    b344:	eb000c4d 	bl	e480 <rt_kprintf>
    b348:	e5dd3007 	ldrb	r3, [sp, #7]
    b34c:	e3530000 	cmp	r3, #0
    b350:	0afffffc 	beq	b348 <rt_event_send+0x128>
    b354:	eaffffb6 	b	b234 <rt_event_send+0x14>
    b358:	0002b644 	andeq	fp, r2, r4, asr #12

0000b35c <rt_event_recv>:
    b35c:	e92d47f0 	push	{r4, r5, r6, r7, r8, r9, sl, lr}
    b360:	e24dd010 	sub	sp, sp, #16
    b364:	e1a05001 	mov	r5, r1
    b368:	e1a07002 	mov	r7, r2
    b36c:	e58d3004 	str	r3, [sp, #4]
    b370:	e1a04000 	mov	r4, r0
    b374:	e59d9030 	ldr	r9, [sp, #48]	; 0x30
    b378:	ebfff61c 	bl	8bf0 <rt_hw_interrupt_disable>
    b37c:	e1a08000 	mov	r8, r0
    b380:	eb001234 	bl	fc58 <rt_thread_self>
    b384:	e2506000 	subs	r6, r0, #0
    b388:	0a000081 	beq	b594 <rt_event_recv+0x238>
    b38c:	ebfff617 	bl	8bf0 <rt_hw_interrupt_disable>
    b390:	e1a06000 	mov	r6, r0
    b394:	eb0006c5 	bl	ceb0 <rt_interrupt_get_nest>
    b398:	e3500000 	cmp	r0, #0
    b39c:	1a000038 	bne	b484 <rt_event_recv+0x128>
    b3a0:	e1a00006 	mov	r0, r6
    b3a4:	ebfff615 	bl	8c00 <rt_hw_interrupt_enable>
    b3a8:	e1a00008 	mov	r0, r8
    b3ac:	ebfff613 	bl	8c00 <rt_hw_interrupt_enable>
    b3b0:	e3540000 	cmp	r4, #0
    b3b4:	0a000086 	beq	b5d4 <rt_event_recv+0x278>
    b3b8:	e3550000 	cmp	r5, #0
    b3bc:	03e00000 	mvneq	r0, #0
    b3c0:	0a000022 	beq	b450 <rt_event_recv+0xf4>
    b3c4:	eb001223 	bl	fc58 <rt_thread_self>
    b3c8:	e30f8df0 	movw	r8, #65008	; 0xfdf0
    b3cc:	e3408002 	movt	r8, #2
    b3d0:	e3a02000 	mov	r2, #0
    b3d4:	e5983000 	ldr	r3, [r8]
    b3d8:	e1530002 	cmp	r3, r2
    b3dc:	e1a06000 	mov	r6, r0
    b3e0:	e580202c 	str	r2, [r0, #44]	; 0x2c
    b3e4:	0a000001 	beq	b3f0 <rt_event_recv+0x94>
    b3e8:	e1a00004 	mov	r0, r4
    b3ec:	e12fff33 	blx	r3
    b3f0:	ebfff5fe 	bl	8bf0 <rt_hw_interrupt_disable>
    b3f4:	e3170001 	tst	r7, #1
    b3f8:	e1a08000 	mov	r8, r0
    b3fc:	e1a0a000 	mov	sl, r0
    b400:	0a000014 	beq	b458 <rt_event_recv+0xfc>
    b404:	e594e018 	ldr	lr, [r4, #24]
    b408:	e005300e 	and	r3, r5, lr
    b40c:	e1530005 	cmp	r3, r5
    b410:	0a000015 	beq	b46c <rt_event_recv+0x110>
    b414:	e59de004 	ldr	lr, [sp, #4]
    b418:	e35e0000 	cmp	lr, #0
    b41c:	03e0e001 	mvneq	lr, #1
    b420:	0586e02c 	streq	lr, [r6, #44]	; 0x2c
    b424:	1a000037 	bne	b508 <rt_event_recv+0x1ac>
    b428:	e1a0000a 	mov	r0, sl
    b42c:	ebfff5f3 	bl	8c00 <rt_hw_interrupt_enable>
    b430:	e30f1dec 	movw	r1, #65004	; 0xfdec
    b434:	e3401002 	movt	r1, #2
    b438:	e5913000 	ldr	r3, [r1]
    b43c:	e3530000 	cmp	r3, #0
    b440:	0a000001 	beq	b44c <rt_event_recv+0xf0>
    b444:	e1a00004 	mov	r0, r4
    b448:	e12fff33 	blx	r3
    b44c:	e596002c 	ldr	r0, [r6, #44]	; 0x2c
    b450:	e28dd010 	add	sp, sp, #16
    b454:	e8bd87f0 	pop	{r4, r5, r6, r7, r8, r9, sl, pc}
    b458:	e217c002 	ands	ip, r7, #2
    b45c:	0a000019 	beq	b4c8 <rt_event_recv+0x16c>
    b460:	e5943018 	ldr	r3, [r4, #24]
    b464:	e0153003 	ands	r3, r5, r3
    b468:	0affffe9 	beq	b414 <rt_event_recv+0xb8>
    b46c:	e3170004 	tst	r7, #4
    b470:	e5893000 	str	r3, [r9]
    b474:	15940018 	ldrne	r0, [r4, #24]
    b478:	11c05005 	bicne	r5, r0, r5
    b47c:	15845018 	strne	r5, [r4, #24]
    b480:	eaffffe8 	b	b428 <rt_event_recv+0xcc>
    b484:	e59f11d0 	ldr	r1, [pc, #464]	; b65c <rt_event_recv+0x300>
    b488:	e30c0a6c 	movw	r0, #51820	; 0xca6c
    b48c:	e3400002 	movt	r0, #2
    b490:	eb000bfa 	bl	e480 <rt_kprintf>
    b494:	e30c082c 	movw	r0, #51244	; 0xc82c
    b498:	e30c1b44 	movw	r1, #52036	; 0xcb44
    b49c:	e3400002 	movt	r0, #2
    b4a0:	e3401002 	movt	r1, #2
    b4a4:	e59f21b0 	ldr	r2, [pc, #432]	; b65c <rt_event_recv+0x300>
    b4a8:	e300344f 	movw	r3, #1103	; 0x44f
    b4ac:	e3a0c000 	mov	ip, #0
    b4b0:	e5cdc00f 	strb	ip, [sp, #15]
    b4b4:	eb000bf1 	bl	e480 <rt_kprintf>
    b4b8:	e5dd000f 	ldrb	r0, [sp, #15]
    b4bc:	e3500000 	cmp	r0, #0
    b4c0:	0afffffc 	beq	b4b8 <rt_event_recv+0x15c>
    b4c4:	eaffffb5 	b	b3a0 <rt_event_recv+0x44>
    b4c8:	e30c082c 	movw	r0, #51244	; 0xc82c
    b4cc:	e30c1b44 	movw	r1, #52036	; 0xcb44
    b4d0:	e3400002 	movt	r0, #2
    b4d4:	e3401002 	movt	r1, #2
    b4d8:	e59f217c 	ldr	r2, [pc, #380]	; b65c <rt_event_recv+0x300>
    b4dc:	e3a03e47 	mov	r3, #1136	; 0x470
    b4e0:	e5cdc00f 	strb	ip, [sp, #15]
    b4e4:	eb000be5 	bl	e480 <rt_kprintf>
    b4e8:	e5ddc00f 	ldrb	ip, [sp, #15]
    b4ec:	e35c0000 	cmp	ip, #0
    b4f0:	0afffffc 	beq	b4e8 <rt_event_recv+0x18c>
    b4f4:	e59de004 	ldr	lr, [sp, #4]
    b4f8:	e35e0000 	cmp	lr, #0
    b4fc:	03e0e001 	mvneq	lr, #1
    b500:	0586e02c 	streq	lr, [r6, #44]	; 0x2c
    b504:	0affffc7 	beq	b428 <rt_event_recv+0xcc>
    b508:	e5865038 	str	r5, [r6, #56]	; 0x38
    b50c:	e1a00006 	mov	r0, r6
    b510:	e5c6703c 	strb	r7, [r6, #60]	; 0x3c
    b514:	e2845010 	add	r5, r4, #16
    b518:	e5d47007 	ldrb	r7, [r4, #7]
    b51c:	eb00125d 	bl	fe98 <rt_thread_suspend>
    b520:	e3570000 	cmp	r7, #0
    b524:	1a000036 	bne	b604 <rt_event_recv+0x2a8>
    b528:	e5940014 	ldr	r0, [r4, #20]
    b52c:	e2863010 	add	r3, r6, #16
    b530:	e5860014 	str	r0, [r6, #20]
    b534:	e5803000 	str	r3, [r0]
    b538:	e5843014 	str	r3, [r4, #20]
    b53c:	e5865010 	str	r5, [r6, #16]
    b540:	e59d2004 	ldr	r2, [sp, #4]
    b544:	e3520000 	cmp	r2, #0
    b548:	da000006 	ble	b568 <rt_event_recv+0x20c>
    b54c:	e2865048 	add	r5, r6, #72	; 0x48
    b550:	e3a01000 	mov	r1, #0
    b554:	e28d2004 	add	r2, sp, #4
    b558:	e1a00005 	mov	r0, r5
    b55c:	eb001459 	bl	106c8 <rt_timer_control>
    b560:	e1a00005 	mov	r0, r5
    b564:	eb0013d1 	bl	104b0 <rt_timer_start>
    b568:	e1a00008 	mov	r0, r8
    b56c:	ebfff5a3 	bl	8c00 <rt_hw_interrupt_enable>
    b570:	eb00102c 	bl	f628 <rt_schedule>
    b574:	e596002c 	ldr	r0, [r6, #44]	; 0x2c
    b578:	e3500000 	cmp	r0, #0
    b57c:	1affffb3 	bne	b450 <rt_event_recv+0xf4>
    b580:	ebfff59a 	bl	8bf0 <rt_hw_interrupt_disable>
    b584:	e596c038 	ldr	ip, [r6, #56]	; 0x38
    b588:	e589c000 	str	ip, [r9]
    b58c:	e1a0a000 	mov	sl, r0
    b590:	eaffffa4 	b	b428 <rt_event_recv+0xcc>
    b594:	e59f10c0 	ldr	r1, [pc, #192]	; b65c <rt_event_recv+0x300>
    b598:	e30c0aa8 	movw	r0, #51880	; 0xcaa8
    b59c:	e3400002 	movt	r0, #2
    b5a0:	eb000bb6 	bl	e480 <rt_kprintf>
    b5a4:	e30c082c 	movw	r0, #51244	; 0xc82c
    b5a8:	e30c1b44 	movw	r1, #52036	; 0xcb44
    b5ac:	e3400002 	movt	r0, #2
    b5b0:	e3401002 	movt	r1, #2
    b5b4:	e59f20a0 	ldr	r2, [pc, #160]	; b65c <rt_event_recv+0x300>
    b5b8:	e300344f 	movw	r3, #1103	; 0x44f
    b5bc:	e5cd600f 	strb	r6, [sp, #15]
    b5c0:	eb000bae 	bl	e480 <rt_kprintf>
    b5c4:	e5dd300f 	ldrb	r3, [sp, #15]
    b5c8:	e3530000 	cmp	r3, #0
    b5cc:	0afffffc 	beq	b5c4 <rt_event_recv+0x268>
    b5d0:	eaffff6d 	b	b38c <rt_event_recv+0x30>
    b5d4:	e30c082c 	movw	r0, #51244	; 0xc82c
    b5d8:	e30c1af4 	movw	r1, #51956	; 0xcaf4
    b5dc:	e3400002 	movt	r0, #2
    b5e0:	e3401002 	movt	r1, #2
    b5e4:	e59f2070 	ldr	r2, [pc, #112]	; b65c <rt_event_recv+0x300>
    b5e8:	e3003452 	movw	r3, #1106	; 0x452
    b5ec:	e5cd400f 	strb	r4, [sp, #15]
    b5f0:	eb000ba2 	bl	e480 <rt_kprintf>
    b5f4:	e5dd100f 	ldrb	r1, [sp, #15]
    b5f8:	e3510000 	cmp	r1, #0
    b5fc:	0afffffc 	beq	b5f4 <rt_event_recv+0x298>
    b600:	eaffff6c 	b	b3b8 <rt_event_recv+0x5c>
    b604:	e3570001 	cmp	r7, #1
    b608:	1affffcc 	bne	b540 <rt_event_recv+0x1e4>
    b60c:	e5943010 	ldr	r3, [r4, #16]
    b610:	e1550003 	cmp	r5, r3
    b614:	0affffc3 	beq	b528 <rt_event_recv+0x1cc>
    b618:	e5d61031 	ldrb	r1, [r6, #49]	; 0x31
    b61c:	e5d32021 	ldrb	r2, [r3, #33]	; 0x21
    b620:	e1520001 	cmp	r2, r1
    b624:	8a000005 	bhi	b640 <rt_event_recv+0x2e4>
    b628:	e5933000 	ldr	r3, [r3]
    b62c:	e1550003 	cmp	r5, r3
    b630:	0affffbc 	beq	b528 <rt_event_recv+0x1cc>
    b634:	e5d3e021 	ldrb	lr, [r3, #33]	; 0x21
    b638:	e15e0001 	cmp	lr, r1
    b63c:	9afffff9 	bls	b628 <rt_event_recv+0x2cc>
    b640:	e5931004 	ldr	r1, [r3, #4]
    b644:	e286c010 	add	ip, r6, #16
    b648:	e5861014 	str	r1, [r6, #20]
    b64c:	e581c000 	str	ip, [r1]
    b650:	e583c004 	str	ip, [r3, #4]
    b654:	e5863010 	str	r3, [r6, #16]
    b658:	eaffffb8 	b	b540 <rt_event_recv+0x1e4>
    b65c:	0002b654 	andeq	fp, r2, r4, asr r6

0000b660 <rt_event_control>:
    b660:	e92d41f0 	push	{r4, r5, r6, r7, r8, lr}
    b664:	e2504000 	subs	r4, r0, #0
    b668:	e24dd008 	sub	sp, sp, #8
    b66c:	e1a05001 	mov	r5, r1
    b670:	0a00001c 	beq	b6e8 <rt_event_control+0x88>
    b674:	e3550001 	cmp	r5, #1
    b678:	13e00000 	mvnne	r0, #0
    b67c:	1a000017 	bne	b6e0 <rt_event_control+0x80>
    b680:	ebfff55a 	bl	8bf0 <rt_hw_interrupt_disable>
    b684:	e2845010 	add	r5, r4, #16
    b688:	e1a08000 	mov	r8, r0
    b68c:	e5940010 	ldr	r0, [r4, #16]
    b690:	e1550000 	cmp	r5, r0
    b694:	0a00000b 	beq	b6c8 <rt_event_control+0x68>
    b698:	e3e07000 	mvn	r7, #0
    b69c:	ebfff553 	bl	8bf0 <rt_hw_interrupt_disable>
    b6a0:	e5952000 	ldr	r2, [r5]
    b6a4:	e582701c 	str	r7, [r2, #28]
    b6a8:	e1a06000 	mov	r6, r0
    b6ac:	e2420010 	sub	r0, r2, #16
    b6b0:	eb001245 	bl	ffcc <rt_thread_resume>
    b6b4:	e1a00006 	mov	r0, r6
    b6b8:	ebfff550 	bl	8c00 <rt_hw_interrupt_enable>
    b6bc:	e5951000 	ldr	r1, [r5]
    b6c0:	e1550001 	cmp	r5, r1
    b6c4:	1afffff4 	bne	b69c <rt_event_control+0x3c>
    b6c8:	e1a00008 	mov	r0, r8
    b6cc:	e3a05000 	mov	r5, #0
    b6d0:	e5845018 	str	r5, [r4, #24]
    b6d4:	ebfff549 	bl	8c00 <rt_hw_interrupt_enable>
    b6d8:	eb000fd2 	bl	f628 <rt_schedule>
    b6dc:	e1a00005 	mov	r0, r5
    b6e0:	e28dd008 	add	sp, sp, #8
    b6e4:	e8bd81f0 	pop	{r4, r5, r6, r7, r8, pc}
    b6e8:	e30c082c 	movw	r0, #51244	; 0xc82c
    b6ec:	e30c1af4 	movw	r1, #51956	; 0xcaf4
    b6f0:	e3400002 	movt	r0, #2
    b6f4:	e3401002 	movt	r1, #2
    b6f8:	e59f2018 	ldr	r2, [pc, #24]	; b718 <rt_event_control+0xb8>
    b6fc:	e30034be 	movw	r3, #1214	; 0x4be
    b700:	e5cd4007 	strb	r4, [sp, #7]
    b704:	eb000b5d 	bl	e480 <rt_kprintf>
    b708:	e5dd3007 	ldrb	r3, [sp, #7]
    b70c:	e3530000 	cmp	r3, #0
    b710:	0afffffc 	beq	b708 <rt_event_control+0xa8>
    b714:	eaffffd6 	b	b674 <rt_event_control+0x14>
    b718:	0002b664 	andeq	fp, r2, r4, ror #12

0000b71c <rt_mb_init>:
    b71c:	e92d40f0 	push	{r4, r5, r6, r7, lr}
    b720:	e2504000 	subs	r4, r0, #0
    b724:	e24dd00c 	sub	sp, sp, #12
    b728:	e1a07001 	mov	r7, r1
    b72c:	e1a06002 	mov	r6, r2
    b730:	e1a05003 	mov	r5, r3
    b734:	0a000014 	beq	b78c <rt_mb_init+0x70>
    b738:	e1a00004 	mov	r0, r4
    b73c:	e1a02007 	mov	r2, r7
    b740:	e3a01004 	mov	r1, #4
    b744:	eb000e7f 	bl	f148 <rt_object_init>
    b748:	e5dd0020 	ldrb	r0, [sp, #32]
    b74c:	e3a0c000 	mov	ip, #0
    b750:	e2841010 	add	r1, r4, #16
    b754:	e2842024 	add	r2, r4, #36	; 0x24
    b758:	e5841014 	str	r1, [r4, #20]
    b75c:	e5c40007 	strb	r0, [r4, #7]
    b760:	e1a0000c 	mov	r0, ip
    b764:	e5841010 	str	r1, [r4, #16]
    b768:	e5846018 	str	r6, [r4, #24]
    b76c:	e1c451bc 	strh	r5, [r4, #28]
    b770:	e1c4c1be 	strh	ip, [r4, #30]
    b774:	e1c4c2b0 	strh	ip, [r4, #32]
    b778:	e1c4c2b2 	strh	ip, [r4, #34]	; 0x22
    b77c:	e5842028 	str	r2, [r4, #40]	; 0x28
    b780:	e5842024 	str	r2, [r4, #36]	; 0x24
    b784:	e28dd00c 	add	sp, sp, #12
    b788:	e8bd80f0 	pop	{r4, r5, r6, r7, pc}
    b78c:	e30c082c 	movw	r0, #51244	; 0xc82c
    b790:	e30c1b08 	movw	r1, #51976	; 0xcb08
    b794:	e3400002 	movt	r0, #2
    b798:	e3401002 	movt	r1, #2
    b79c:	e59f2018 	ldr	r2, [pc, #24]	; b7bc <rt_mb_init+0xa0>
    b7a0:	e30034eb 	movw	r3, #1259	; 0x4eb
    b7a4:	e5cd4007 	strb	r4, [sp, #7]
    b7a8:	eb000b34 	bl	e480 <rt_kprintf>
    b7ac:	e5dd3007 	ldrb	r3, [sp, #7]
    b7b0:	e3530000 	cmp	r3, #0
    b7b4:	0afffffc 	beq	b7ac <rt_mb_init+0x90>
    b7b8:	eaffffde 	b	b738 <rt_mb_init+0x1c>
    b7bc:	0002b678 	andeq	fp, r2, r8, ror r6

0000b7c0 <rt_mb_detach>:
    b7c0:	e92d40f0 	push	{r4, r5, r6, r7, lr}
    b7c4:	e2504000 	subs	r4, r0, #0
    b7c8:	e24dd00c 	sub	sp, sp, #12
    b7cc:	0a000024 	beq	b864 <rt_mb_detach+0xa4>
    b7d0:	e5940010 	ldr	r0, [r4, #16]
    b7d4:	e2845010 	add	r5, r4, #16
    b7d8:	e1550000 	cmp	r5, r0
    b7dc:	0a00000b 	beq	b810 <rt_mb_detach+0x50>
    b7e0:	e3e07000 	mvn	r7, #0
    b7e4:	ebfff501 	bl	8bf0 <rt_hw_interrupt_disable>
    b7e8:	e5952000 	ldr	r2, [r5]
    b7ec:	e582701c 	str	r7, [r2, #28]
    b7f0:	e1a06000 	mov	r6, r0
    b7f4:	e2420010 	sub	r0, r2, #16
    b7f8:	eb0011f3 	bl	ffcc <rt_thread_resume>
    b7fc:	e1a00006 	mov	r0, r6
    b800:	ebfff4fe 	bl	8c00 <rt_hw_interrupt_enable>
    b804:	e5951000 	ldr	r1, [r5]
    b808:	e1550001 	cmp	r5, r1
    b80c:	1afffff4 	bne	b7e4 <rt_mb_detach+0x24>
    b810:	e594c024 	ldr	ip, [r4, #36]	; 0x24
    b814:	e2845024 	add	r5, r4, #36	; 0x24
    b818:	e155000c 	cmp	r5, ip
    b81c:	0a00000b 	beq	b850 <rt_mb_detach+0x90>
    b820:	e3e07000 	mvn	r7, #0
    b824:	ebfff4f1 	bl	8bf0 <rt_hw_interrupt_disable>
    b828:	e5951000 	ldr	r1, [r5]
    b82c:	e581701c 	str	r7, [r1, #28]
    b830:	e1a06000 	mov	r6, r0
    b834:	e2410010 	sub	r0, r1, #16
    b838:	eb0011e3 	bl	ffcc <rt_thread_resume>
    b83c:	e1a00006 	mov	r0, r6
    b840:	ebfff4ee 	bl	8c00 <rt_hw_interrupt_enable>
    b844:	e5953000 	ldr	r3, [r5]
    b848:	e1550003 	cmp	r5, r3
    b84c:	1afffff4 	bne	b824 <rt_mb_detach+0x64>
    b850:	e1a00004 	mov	r0, r4
    b854:	eb000e57 	bl	f1b8 <rt_object_detach>
    b858:	e3a00000 	mov	r0, #0
    b85c:	e28dd00c 	add	sp, sp, #12
    b860:	e8bd80f0 	pop	{r4, r5, r6, r7, pc}
    b864:	e30c082c 	movw	r0, #51244	; 0xc82c
    b868:	e30c1b08 	movw	r1, #51976	; 0xcb08
    b86c:	e3400002 	movt	r0, #2
    b870:	e3401002 	movt	r1, #2
    b874:	e59f2018 	ldr	r2, [pc, #24]	; b894 <rt_mb_detach+0xd4>
    b878:	e300350e 	movw	r3, #1294	; 0x50e
    b87c:	e5cd4007 	strb	r4, [sp, #7]
    b880:	eb000afe 	bl	e480 <rt_kprintf>
    b884:	e5dd3007 	ldrb	r3, [sp, #7]
    b888:	e3530000 	cmp	r3, #0
    b88c:	0afffffc 	beq	b884 <rt_mb_detach+0xc4>
    b890:	eaffffce 	b	b7d0 <rt_mb_detach+0x10>
    b894:	0002b684 	andeq	fp, r2, r4, lsl #13

0000b898 <rt_mb_create>:
    b898:	e92d40f0 	push	{r4, r5, r6, r7, lr}
    b89c:	e24dd00c 	sub	sp, sp, #12
    b8a0:	e1a07001 	mov	r7, r1
    b8a4:	e1a06002 	mov	r6, r2
    b8a8:	e1a04000 	mov	r4, r0
    b8ac:	ebfff4cf 	bl	8bf0 <rt_hw_interrupt_disable>
    b8b0:	e1a05000 	mov	r5, r0
    b8b4:	eb00057d 	bl	ceb0 <rt_interrupt_get_nest>
    b8b8:	e3500000 	cmp	r0, #0
    b8bc:	1a00001b 	bne	b930 <rt_mb_create+0x98>
    b8c0:	e1a00005 	mov	r0, r5
    b8c4:	ebfff4cd 	bl	8c00 <rt_hw_interrupt_enable>
    b8c8:	e1a01004 	mov	r1, r4
    b8cc:	e3a00004 	mov	r0, #4
    b8d0:	eb000e5c 	bl	f248 <rt_object_allocate>
    b8d4:	e2504000 	subs	r4, r0, #0
    b8d8:	0a000011 	beq	b924 <rt_mb_create+0x8c>
    b8dc:	e6ff7077 	uxth	r7, r7
    b8e0:	e2841010 	add	r1, r4, #16
    b8e4:	e5c46007 	strb	r6, [r4, #7]
    b8e8:	e5841014 	str	r1, [r4, #20]
    b8ec:	e1a00107 	lsl	r0, r7, #2
    b8f0:	e5841010 	str	r1, [r4, #16]
    b8f4:	e1c471bc 	strh	r7, [r4, #28]
    b8f8:	eb000c0a 	bl	e928 <rt_malloc>
    b8fc:	e2503000 	subs	r3, r0, #0
    b900:	e5840018 	str	r0, [r4, #24]
    b904:	0a00001a 	beq	b974 <rt_mb_create+0xdc>
    b908:	e3a00000 	mov	r0, #0
    b90c:	e2842024 	add	r2, r4, #36	; 0x24
    b910:	e1c401be 	strh	r0, [r4, #30]
    b914:	e1c402b0 	strh	r0, [r4, #32]
    b918:	e1c402b2 	strh	r0, [r4, #34]	; 0x22
    b91c:	e5842028 	str	r2, [r4, #40]	; 0x28
    b920:	e5842024 	str	r2, [r4, #36]	; 0x24
    b924:	e1a00004 	mov	r0, r4
    b928:	e28dd00c 	add	sp, sp, #12
    b92c:	e8bd80f0 	pop	{r4, r5, r6, r7, pc}
    b930:	e59f104c 	ldr	r1, [pc, #76]	; b984 <rt_mb_create+0xec>
    b934:	e30c0a6c 	movw	r0, #51820	; 0xca6c
    b938:	e3400002 	movt	r0, #2
    b93c:	eb000acf 	bl	e480 <rt_kprintf>
    b940:	e30c082c 	movw	r0, #51244	; 0xc82c
    b944:	e30c1b44 	movw	r1, #52036	; 0xcb44
    b948:	e3400002 	movt	r0, #2
    b94c:	e3401002 	movt	r1, #2
    b950:	e59f202c 	ldr	r2, [pc, #44]	; b984 <rt_mb_create+0xec>
    b954:	e300352a 	movw	r3, #1322	; 0x52a
    b958:	e3a0c000 	mov	ip, #0
    b95c:	e5cdc007 	strb	ip, [sp, #7]
    b960:	eb000ac6 	bl	e480 <rt_kprintf>
    b964:	e5dd3007 	ldrb	r3, [sp, #7]
    b968:	e3530000 	cmp	r3, #0
    b96c:	0afffffc 	beq	b964 <rt_mb_create+0xcc>
    b970:	eaffffd2 	b	b8c0 <rt_mb_create+0x28>
    b974:	e1a00004 	mov	r0, r4
    b978:	e1a04003 	mov	r4, r3
    b97c:	eb000e6d 	bl	f338 <rt_object_delete>
    b980:	eaffffe7 	b	b924 <rt_mb_create+0x8c>
    b984:	0002b694 	muleq	r2, r4, r6

0000b988 <rt_mb_delete>:
    b988:	e92d40f0 	push	{r4, r5, r6, r7, lr}
    b98c:	e24dd00c 	sub	sp, sp, #12
    b990:	e1a04000 	mov	r4, r0
    b994:	ebfff495 	bl	8bf0 <rt_hw_interrupt_disable>
    b998:	e1a05000 	mov	r5, r0
    b99c:	eb000543 	bl	ceb0 <rt_interrupt_get_nest>
    b9a0:	e3500000 	cmp	r0, #0
    b9a4:	1a00002a 	bne	ba54 <rt_mb_delete+0xcc>
    b9a8:	e1a00005 	mov	r0, r5
    b9ac:	ebfff493 	bl	8c00 <rt_hw_interrupt_enable>
    b9b0:	e3540000 	cmp	r4, #0
    b9b4:	0a00003a 	beq	baa4 <rt_mb_delete+0x11c>
    b9b8:	e5941010 	ldr	r1, [r4, #16]
    b9bc:	e2845010 	add	r5, r4, #16
    b9c0:	e1550001 	cmp	r5, r1
    b9c4:	0a00000b 	beq	b9f8 <rt_mb_delete+0x70>
    b9c8:	e3e07000 	mvn	r7, #0
    b9cc:	ebfff487 	bl	8bf0 <rt_hw_interrupt_disable>
    b9d0:	e595c000 	ldr	ip, [r5]
    b9d4:	e58c701c 	str	r7, [ip, #28]
    b9d8:	e1a06000 	mov	r6, r0
    b9dc:	e24c0010 	sub	r0, ip, #16
    b9e0:	eb001179 	bl	ffcc <rt_thread_resume>
    b9e4:	e1a00006 	mov	r0, r6
    b9e8:	ebfff484 	bl	8c00 <rt_hw_interrupt_enable>
    b9ec:	e5952000 	ldr	r2, [r5]
    b9f0:	e1550002 	cmp	r5, r2
    b9f4:	1afffff4 	bne	b9cc <rt_mb_delete+0x44>
    b9f8:	e594e024 	ldr	lr, [r4, #36]	; 0x24
    b9fc:	e2845024 	add	r5, r4, #36	; 0x24
    ba00:	e155000e 	cmp	r5, lr
    ba04:	0a00000b 	beq	ba38 <rt_mb_delete+0xb0>
    ba08:	e3e07000 	mvn	r7, #0
    ba0c:	ebfff477 	bl	8bf0 <rt_hw_interrupt_disable>
    ba10:	e5951000 	ldr	r1, [r5]
    ba14:	e581701c 	str	r7, [r1, #28]
    ba18:	e1a06000 	mov	r6, r0
    ba1c:	e2410010 	sub	r0, r1, #16
    ba20:	eb001169 	bl	ffcc <rt_thread_resume>
    ba24:	e1a00006 	mov	r0, r6
    ba28:	ebfff474 	bl	8c00 <rt_hw_interrupt_enable>
    ba2c:	e5953000 	ldr	r3, [r5]
    ba30:	e1550003 	cmp	r5, r3
    ba34:	1afffff4 	bne	ba0c <rt_mb_delete+0x84>
    ba38:	e5940018 	ldr	r0, [r4, #24]
    ba3c:	eb000ca1 	bl	ecc8 <rt_free>
    ba40:	e1a00004 	mov	r0, r4
    ba44:	eb000e3b 	bl	f338 <rt_object_delete>
    ba48:	e3a00000 	mov	r0, #0
    ba4c:	e28dd00c 	add	sp, sp, #12
    ba50:	e8bd80f0 	pop	{r4, r5, r6, r7, pc}
    ba54:	e59f1078 	ldr	r1, [pc, #120]	; bad4 <rt_mb_delete+0x14c>
    ba58:	e30c0a6c 	movw	r0, #51820	; 0xca6c
    ba5c:	e3400002 	movt	r0, #2
    ba60:	eb000a86 	bl	e480 <rt_kprintf>
    ba64:	e30c082c 	movw	r0, #51244	; 0xc82c
    ba68:	e30c1b44 	movw	r1, #52036	; 0xcb44
    ba6c:	e3400002 	movt	r0, #2
    ba70:	e3401002 	movt	r1, #2
    ba74:	e59f2058 	ldr	r2, [pc, #88]	; bad4 <rt_mb_delete+0x14c>
    ba78:	e3003555 	movw	r3, #1365	; 0x555
    ba7c:	e3a0c000 	mov	ip, #0
    ba80:	e5cdc007 	strb	ip, [sp, #7]
    ba84:	eb000a7d 	bl	e480 <rt_kprintf>
    ba88:	e5dd3007 	ldrb	r3, [sp, #7]
    ba8c:	e3530000 	cmp	r3, #0
    ba90:	0afffffc 	beq	ba88 <rt_mb_delete+0x100>
    ba94:	e1a00005 	mov	r0, r5
    ba98:	ebfff458 	bl	8c00 <rt_hw_interrupt_enable>
    ba9c:	e3540000 	cmp	r4, #0
    baa0:	1affffc4 	bne	b9b8 <rt_mb_delete+0x30>
    baa4:	e30c082c 	movw	r0, #51244	; 0xc82c
    baa8:	e30c1b08 	movw	r1, #51976	; 0xcb08
    baac:	e3400002 	movt	r0, #2
    bab0:	e3401002 	movt	r1, #2
    bab4:	e59f2018 	ldr	r2, [pc, #24]	; bad4 <rt_mb_delete+0x14c>
    bab8:	e3003558 	movw	r3, #1368	; 0x558
    babc:	e5cd4007 	strb	r4, [sp, #7]
    bac0:	eb000a6e 	bl	e480 <rt_kprintf>
    bac4:	e5dd0007 	ldrb	r0, [sp, #7]
    bac8:	e3500000 	cmp	r0, #0
    bacc:	0afffffc 	beq	bac4 <rt_mb_delete+0x13c>
    bad0:	eaffffb8 	b	b9b8 <rt_mb_delete+0x30>
    bad4:	0002b6a4 	andeq	fp, r2, r4, lsr #13

0000bad8 <rt_mb_send_wait>:
    bad8:	e92d4ff0 	push	{r4, r5, r6, r7, r8, r9, sl, fp, lr}
    badc:	e2505000 	subs	r5, r0, #0
    bae0:	e24dd01c 	sub	sp, sp, #28
    bae4:	e58d1008 	str	r1, [sp, #8]
    bae8:	e58d200c 	str	r2, [sp, #12]
    baec:	0a0000b4 	beq	bdc4 <rt_mb_send_wait+0x2ec>
    baf0:	eb001058 	bl	fc58 <rt_thread_self>
    baf4:	e1a04000 	mov	r4, r0
    baf8:	e30f0de8 	movw	r0, #65000	; 0xfde8
    bafc:	e3400002 	movt	r0, #2
    bb00:	e5903000 	ldr	r3, [r0]
    bb04:	e3530000 	cmp	r3, #0
    bb08:	0a000001 	beq	bb14 <rt_mb_send_wait+0x3c>
    bb0c:	e1a00005 	mov	r0, r5
    bb10:	e12fff33 	blx	r3
    bb14:	ebfff435 	bl	8bf0 <rt_hw_interrupt_disable>
    bb18:	e59d800c 	ldr	r8, [sp, #12]
    bb1c:	e1d531be 	ldrh	r3, [r5, #30]
    bb20:	e1d521bc 	ldrh	r2, [r5, #28]
    bb24:	e3580000 	cmp	r8, #0
    bb28:	01530002 	cmpeq	r3, r2
    bb2c:	13a08000 	movne	r8, #0
    bb30:	03a08001 	moveq	r8, #1
    bb34:	e1a0a000 	mov	sl, r0
    bb38:	0a00009a 	beq	bda8 <rt_mb_send_wait+0x2d0>
    bb3c:	e2856024 	add	r6, r5, #36	; 0x24
    bb40:	e2841010 	add	r1, r4, #16
    bb44:	e1a0b008 	mov	fp, r8
    bb48:	e58d1004 	str	r1, [sp, #4]
    bb4c:	e1a07006 	mov	r7, r6
    bb50:	ea000024 	b	bbe8 <rt_mb_send_wait+0x110>
    bb54:	e5953028 	ldr	r3, [r5, #40]	; 0x28
    bb58:	e59de004 	ldr	lr, [sp, #4]
    bb5c:	e5843014 	str	r3, [r4, #20]
    bb60:	e583e000 	str	lr, [r3]
    bb64:	e585e028 	str	lr, [r5, #40]	; 0x28
    bb68:	e5847010 	str	r7, [r4, #16]
    bb6c:	e59d000c 	ldr	r0, [sp, #12]
    bb70:	e3500000 	cmp	r0, #0
    bb74:	da000008 	ble	bb9c <rt_mb_send_wait+0xc4>
    bb78:	ebfff761 	bl	9904 <rt_tick_get>
    bb7c:	e2846048 	add	r6, r4, #72	; 0x48
    bb80:	e3a01000 	mov	r1, #0
    bb84:	e28d200c 	add	r2, sp, #12
    bb88:	e1a08000 	mov	r8, r0
    bb8c:	e1a00006 	mov	r0, r6
    bb90:	eb0012cc 	bl	106c8 <rt_timer_control>
    bb94:	e1a00006 	mov	r0, r6
    bb98:	eb001244 	bl	104b0 <rt_timer_start>
    bb9c:	e1a0000a 	mov	r0, sl
    bba0:	ebfff416 	bl	8c00 <rt_hw_interrupt_enable>
    bba4:	eb000e9f 	bl	f628 <rt_schedule>
    bba8:	e594002c 	ldr	r0, [r4, #44]	; 0x2c
    bbac:	e3500000 	cmp	r0, #0
    bbb0:	1a000069 	bne	bd5c <rt_mb_send_wait+0x284>
    bbb4:	ebfff40d 	bl	8bf0 <rt_hw_interrupt_disable>
    bbb8:	e59d200c 	ldr	r2, [sp, #12]
    bbbc:	e3520000 	cmp	r2, #0
    bbc0:	e1a0a000 	mov	sl, r0
    bbc4:	da000005 	ble	bbe0 <rt_mb_send_wait+0x108>
    bbc8:	ebfff74d 	bl	9904 <rt_tick_get>
    bbcc:	e59dc00c 	ldr	ip, [sp, #12]
    bbd0:	e0688000 	rsb	r8, r8, r0
    bbd4:	e05c1008 	subs	r1, ip, r8
    bbd8:	43a01000 	movmi	r1, #0
    bbdc:	e58d100c 	str	r1, [sp, #12]
    bbe0:	e1d531be 	ldrh	r3, [r5, #30]
    bbe4:	e1d521bc 	ldrh	r2, [r5, #28]
    bbe8:	e1530002 	cmp	r3, r2
    bbec:	1a000044 	bne	bd04 <rt_mb_send_wait+0x22c>
    bbf0:	e59d200c 	ldr	r2, [sp, #12]
    bbf4:	e584b02c 	str	fp, [r4, #44]	; 0x2c
    bbf8:	e3520000 	cmp	r2, #0
    bbfc:	0a000068 	beq	bda4 <rt_mb_send_wait+0x2cc>
    bc00:	ebfff3fa 	bl	8bf0 <rt_hw_interrupt_disable>
    bc04:	e1a09000 	mov	r9, r0
    bc08:	eb001012 	bl	fc58 <rt_thread_self>
    bc0c:	e2506000 	subs	r6, r0, #0
    bc10:	0a000053 	beq	bd64 <rt_mb_send_wait+0x28c>
    bc14:	ebfff3f5 	bl	8bf0 <rt_hw_interrupt_disable>
    bc18:	e1a06000 	mov	r6, r0
    bc1c:	eb0004a3 	bl	ceb0 <rt_interrupt_get_nest>
    bc20:	e3500000 	cmp	r0, #0
    bc24:	1a00001f 	bne	bca8 <rt_mb_send_wait+0x1d0>
    bc28:	e1a00006 	mov	r0, r6
    bc2c:	ebfff3f3 	bl	8c00 <rt_hw_interrupt_enable>
    bc30:	e1a00009 	mov	r0, r9
    bc34:	ebfff3f1 	bl	8c00 <rt_hw_interrupt_enable>
    bc38:	e5d56007 	ldrb	r6, [r5, #7]
    bc3c:	e1a00004 	mov	r0, r4
    bc40:	eb001094 	bl	fe98 <rt_thread_suspend>
    bc44:	e3560000 	cmp	r6, #0
    bc48:	0affffc1 	beq	bb54 <rt_mb_send_wait+0x7c>
    bc4c:	e3560001 	cmp	r6, #1
    bc50:	1affffc5 	bne	bb6c <rt_mb_send_wait+0x94>
    bc54:	e5953024 	ldr	r3, [r5, #36]	; 0x24
    bc58:	e1570003 	cmp	r7, r3
    bc5c:	0a00000a 	beq	bc8c <rt_mb_send_wait+0x1b4>
    bc60:	e5d41031 	ldrb	r1, [r4, #49]	; 0x31
    bc64:	e5d30021 	ldrb	r0, [r3, #33]	; 0x21
    bc68:	e1500001 	cmp	r0, r1
    bc6c:	9a000003 	bls	bc80 <rt_mb_send_wait+0x1a8>
    bc70:	ea00001c 	b	bce8 <rt_mb_send_wait+0x210>
    bc74:	e5d32021 	ldrb	r2, [r3, #33]	; 0x21
    bc78:	e1520001 	cmp	r2, r1
    bc7c:	8a000019 	bhi	bce8 <rt_mb_send_wait+0x210>
    bc80:	e5933000 	ldr	r3, [r3]
    bc84:	e1570003 	cmp	r7, r3
    bc88:	1afffff9 	bne	bc74 <rt_mb_send_wait+0x19c>
    bc8c:	e5953028 	ldr	r3, [r5, #40]	; 0x28
    bc90:	e59de004 	ldr	lr, [sp, #4]
    bc94:	e5843014 	str	r3, [r4, #20]
    bc98:	e583e000 	str	lr, [r3]
    bc9c:	e585e028 	str	lr, [r5, #40]	; 0x28
    bca0:	e5847010 	str	r7, [r4, #16]
    bca4:	eaffffb0 	b	bb6c <rt_mb_send_wait+0x94>
    bca8:	e59f1144 	ldr	r1, [pc, #324]	; bdf4 <rt_mb_send_wait+0x31c>
    bcac:	e30c0a6c 	movw	r0, #51820	; 0xca6c
    bcb0:	e3400002 	movt	r0, #2
    bcb4:	eb0009f1 	bl	e480 <rt_kprintf>
    bcb8:	e30c082c 	movw	r0, #51244	; 0xc82c
    bcbc:	e30c1b44 	movw	r1, #52036	; 0xcb44
    bcc0:	e3400002 	movt	r0, #2
    bcc4:	e3401002 	movt	r1, #2
    bcc8:	e59f2124 	ldr	r2, [pc, #292]	; bdf4 <rt_mb_send_wait+0x31c>
    bccc:	e30035a8 	movw	r3, #1448	; 0x5a8
    bcd0:	e5cdb017 	strb	fp, [sp, #23]
    bcd4:	eb0009e9 	bl	e480 <rt_kprintf>
    bcd8:	e5ddc017 	ldrb	ip, [sp, #23]
    bcdc:	e35c0000 	cmp	ip, #0
    bce0:	0afffffc 	beq	bcd8 <rt_mb_send_wait+0x200>
    bce4:	eaffffcf 	b	bc28 <rt_mb_send_wait+0x150>
    bce8:	e593c004 	ldr	ip, [r3, #4]
    bcec:	e59d1004 	ldr	r1, [sp, #4]
    bcf0:	e584c014 	str	ip, [r4, #20]
    bcf4:	e58c1000 	str	r1, [ip]
    bcf8:	e5831004 	str	r1, [r3, #4]
    bcfc:	e5843010 	str	r3, [r4, #16]
    bd00:	eaffff99 	b	bb6c <rt_mb_send_wait+0x94>
    bd04:	e1d502b0 	ldrh	r0, [r5, #32]
    bd08:	e2833001 	add	r3, r3, #1
    bd0c:	e59de008 	ldr	lr, [sp, #8]
    bd10:	e595c018 	ldr	ip, [r5, #24]
    bd14:	e2801001 	add	r1, r0, #1
    bd18:	e6ff1071 	uxth	r1, r1
    bd1c:	e78ce100 	str	lr, [ip, r0, lsl #2]
    bd20:	e1a0e005 	mov	lr, r5
    bd24:	e1510002 	cmp	r1, r2
    bd28:	e5be0010 	ldr	r0, [lr, #16]!
    bd2c:	e1c512b0 	strh	r1, [r5, #32]
    bd30:	23a02000 	movcs	r2, #0
    bd34:	21c522b0 	strhcs	r2, [r5, #32]
    bd38:	e150000e 	cmp	r0, lr
    bd3c:	e1c531be 	strh	r3, [r5, #30]
    bd40:	0a00001b 	beq	bdb4 <rt_mb_send_wait+0x2dc>
    bd44:	e2400010 	sub	r0, r0, #16
    bd48:	eb00109f 	bl	ffcc <rt_thread_resume>
    bd4c:	e1a0000a 	mov	r0, sl
    bd50:	ebfff3aa 	bl	8c00 <rt_hw_interrupt_enable>
    bd54:	eb000e33 	bl	f628 <rt_schedule>
    bd58:	e3a00000 	mov	r0, #0
    bd5c:	e28dd01c 	add	sp, sp, #28
    bd60:	e8bd8ff0 	pop	{r4, r5, r6, r7, r8, r9, sl, fp, pc}
    bd64:	e59f1088 	ldr	r1, [pc, #136]	; bdf4 <rt_mb_send_wait+0x31c>
    bd68:	e30c0aa8 	movw	r0, #51880	; 0xcaa8
    bd6c:	e3400002 	movt	r0, #2
    bd70:	eb0009c2 	bl	e480 <rt_kprintf>
    bd74:	e30c082c 	movw	r0, #51244	; 0xc82c
    bd78:	e30c1b44 	movw	r1, #52036	; 0xcb44
    bd7c:	e3400002 	movt	r0, #2
    bd80:	e3401002 	movt	r1, #2
    bd84:	e59f2068 	ldr	r2, [pc, #104]	; bdf4 <rt_mb_send_wait+0x31c>
    bd88:	e30035a8 	movw	r3, #1448	; 0x5a8
    bd8c:	e5cd6017 	strb	r6, [sp, #23]
    bd90:	eb0009ba 	bl	e480 <rt_kprintf>
    bd94:	e5dd6017 	ldrb	r6, [sp, #23]
    bd98:	e3560000 	cmp	r6, #0
    bd9c:	0afffffc 	beq	bd94 <rt_mb_send_wait+0x2bc>
    bda0:	eaffff9b 	b	bc14 <rt_mb_send_wait+0x13c>
    bda4:	e1a0000a 	mov	r0, sl
    bda8:	ebfff394 	bl	8c00 <rt_hw_interrupt_enable>
    bdac:	e3e00002 	mvn	r0, #2
    bdb0:	eaffffe9 	b	bd5c <rt_mb_send_wait+0x284>
    bdb4:	e1a0000a 	mov	r0, sl
    bdb8:	ebfff390 	bl	8c00 <rt_hw_interrupt_enable>
    bdbc:	e3a00000 	mov	r0, #0
    bdc0:	eaffffe5 	b	bd5c <rt_mb_send_wait+0x284>
    bdc4:	e30c082c 	movw	r0, #51244	; 0xc82c
    bdc8:	e30c1b08 	movw	r1, #51976	; 0xcb08
    bdcc:	e3400002 	movt	r0, #2
    bdd0:	e3401002 	movt	r1, #2
    bdd4:	e59f2018 	ldr	r2, [pc, #24]	; bdf4 <rt_mb_send_wait+0x31c>
    bdd8:	e3003585 	movw	r3, #1413	; 0x585
    bddc:	e5cd5017 	strb	r5, [sp, #23]
    bde0:	eb0009a6 	bl	e480 <rt_kprintf>
    bde4:	e5dd3017 	ldrb	r3, [sp, #23]
    bde8:	e3530000 	cmp	r3, #0
    bdec:	0afffffc 	beq	bde4 <rt_mb_send_wait+0x30c>
    bdf0:	eaffff3e 	b	baf0 <rt_mb_send_wait+0x18>
    bdf4:	0002b6b4 			; <UNDEFINED> instruction: 0x0002b6b4

0000bdf8 <rt_mb_send>:
    bdf8:	e3a02000 	mov	r2, #0
    bdfc:	eaffff35 	b	bad8 <rt_mb_send_wait>

0000be00 <rt_mb_recv>:
    be00:	e92d4ff0 	push	{r4, r5, r6, r7, r8, r9, sl, fp, lr}
    be04:	e2506000 	subs	r6, r0, #0
    be08:	e24dd014 	sub	sp, sp, #20
    be0c:	e88d0006 	stm	sp, {r1, r2}
    be10:	0a0000ae 	beq	c0d0 <rt_mb_recv+0x2d0>
    be14:	eb000f8f 	bl	fc58 <rt_thread_self>
    be18:	e1a04000 	mov	r4, r0
    be1c:	e30f0df0 	movw	r0, #65008	; 0xfdf0
    be20:	e3400002 	movt	r0, #2
    be24:	e5903000 	ldr	r3, [r0]
    be28:	e3530000 	cmp	r3, #0
    be2c:	0a000001 	beq	be38 <rt_mb_recv+0x38>
    be30:	e1a00006 	mov	r0, r6
    be34:	e12fff33 	blx	r3
    be38:	ebfff36c 	bl	8bf0 <rt_hw_interrupt_disable>
    be3c:	e59d8004 	ldr	r8, [sp, #4]
    be40:	e1d671be 	ldrh	r7, [r6, #30]
    be44:	e3580000 	cmp	r8, #0
    be48:	03570000 	cmpeq	r7, #0
    be4c:	12865010 	addne	r5, r6, #16
    be50:	1284b010 	addne	fp, r4, #16
    be54:	13a08000 	movne	r8, #0
    be58:	03a08001 	moveq	r8, #1
    be5c:	e1a0a000 	mov	sl, r0
    be60:	0a0000b2 	beq	c130 <rt_mb_recv+0x330>
    be64:	e3570000 	cmp	r7, #0
    be68:	1a00003b 	bne	bf5c <rt_mb_recv+0x15c>
    be6c:	e59d1004 	ldr	r1, [sp, #4]
    be70:	e584702c 	str	r7, [r4, #44]	; 0x2c
    be74:	e3510000 	cmp	r1, #0
    be78:	0a00008e 	beq	c0b8 <rt_mb_recv+0x2b8>
    be7c:	ebfff35b 	bl	8bf0 <rt_hw_interrupt_disable>
    be80:	e1a09000 	mov	r9, r0
    be84:	eb000f73 	bl	fc58 <rt_thread_self>
    be88:	e3500000 	cmp	r0, #0
    be8c:	0a000079 	beq	c078 <rt_mb_recv+0x278>
    be90:	ebfff356 	bl	8bf0 <rt_hw_interrupt_disable>
    be94:	e1a07000 	mov	r7, r0
    be98:	eb000404 	bl	ceb0 <rt_interrupt_get_nest>
    be9c:	e3500000 	cmp	r0, #0
    bea0:	1a000063 	bne	c034 <rt_mb_recv+0x234>
    bea4:	e1a00007 	mov	r0, r7
    bea8:	ebfff354 	bl	8c00 <rt_hw_interrupt_enable>
    beac:	e1a00009 	mov	r0, r9
    beb0:	ebfff352 	bl	8c00 <rt_hw_interrupt_enable>
    beb4:	e5d67007 	ldrb	r7, [r6, #7]
    beb8:	e1a00004 	mov	r0, r4
    bebc:	eb000ff5 	bl	fe98 <rt_thread_suspend>
    bec0:	e3570000 	cmp	r7, #0
    bec4:	1a000045 	bne	bfe0 <rt_mb_recv+0x1e0>
    bec8:	e5963014 	ldr	r3, [r6, #20]
    becc:	e583b000 	str	fp, [r3]
    bed0:	e5843014 	str	r3, [r4, #20]
    bed4:	e5845010 	str	r5, [r4, #16]
    bed8:	e586b014 	str	fp, [r6, #20]
    bedc:	e59dc004 	ldr	ip, [sp, #4]
    bee0:	e35c0000 	cmp	ip, #0
    bee4:	da000008 	ble	bf0c <rt_mb_recv+0x10c>
    bee8:	ebfff685 	bl	9904 <rt_tick_get>
    beec:	e2847048 	add	r7, r4, #72	; 0x48
    bef0:	e3a01000 	mov	r1, #0
    bef4:	e28d2004 	add	r2, sp, #4
    bef8:	e1a08000 	mov	r8, r0
    befc:	e1a00007 	mov	r0, r7
    bf00:	eb0011f0 	bl	106c8 <rt_timer_control>
    bf04:	e1a00007 	mov	r0, r7
    bf08:	eb001168 	bl	104b0 <rt_timer_start>
    bf0c:	e1a0000a 	mov	r0, sl
    bf10:	ebfff33a 	bl	8c00 <rt_hw_interrupt_enable>
    bf14:	eb000dc3 	bl	f628 <rt_schedule>
    bf18:	e594002c 	ldr	r0, [r4, #44]	; 0x2c
    bf1c:	e3500000 	cmp	r0, #0
    bf20:	1a00002c 	bne	bfd8 <rt_mb_recv+0x1d8>
    bf24:	ebfff331 	bl	8bf0 <rt_hw_interrupt_disable>
    bf28:	e59d7004 	ldr	r7, [sp, #4]
    bf2c:	e3570000 	cmp	r7, #0
    bf30:	e1a0a000 	mov	sl, r0
    bf34:	da000005 	ble	bf50 <rt_mb_recv+0x150>
    bf38:	ebfff671 	bl	9904 <rt_tick_get>
    bf3c:	e59d2004 	ldr	r2, [sp, #4]
    bf40:	e0688000 	rsb	r8, r8, r0
    bf44:	e0520008 	subs	r0, r2, r8
    bf48:	43a00000 	movmi	r0, #0
    bf4c:	e58d0004 	str	r0, [sp, #4]
    bf50:	e1d671be 	ldrh	r7, [r6, #30]
    bf54:	e3570000 	cmp	r7, #0
    bf58:	0affffc3 	beq	be6c <rt_mb_recv+0x6c>
    bf5c:	e1d622b2 	ldrh	r2, [r6, #34]	; 0x22
    bf60:	e2477001 	sub	r7, r7, #1
    bf64:	e5963018 	ldr	r3, [r6, #24]
    bf68:	e282e001 	add	lr, r2, #1
    bf6c:	e59d1000 	ldr	r1, [sp]
    bf70:	e1d6c1bc 	ldrh	ip, [r6, #28]
    bf74:	e7930102 	ldr	r0, [r3, r2, lsl #2]
    bf78:	e6ff307e 	uxth	r3, lr
    bf7c:	e1a0e006 	mov	lr, r6
    bf80:	e15c0003 	cmp	ip, r3
    bf84:	e5810000 	str	r0, [r1]
    bf88:	e5be0024 	ldr	r0, [lr, #36]!	; 0x24
    bf8c:	e1c632b2 	strh	r3, [r6, #34]	; 0x22
    bf90:	93a03000 	movls	r3, #0
    bf94:	91c632b2 	strhls	r3, [r6, #34]	; 0x22
    bf98:	e150000e 	cmp	r0, lr
    bf9c:	e1c671be 	strh	r7, [r6, #30]
    bfa0:	0a000056 	beq	c100 <rt_mb_recv+0x300>
    bfa4:	e2400010 	sub	r0, r0, #16
    bfa8:	eb001007 	bl	ffcc <rt_thread_resume>
    bfac:	e1a0000a 	mov	r0, sl
    bfb0:	ebfff312 	bl	8c00 <rt_hw_interrupt_enable>
    bfb4:	e30f0dec 	movw	r0, #65004	; 0xfdec
    bfb8:	e3400002 	movt	r0, #2
    bfbc:	e5903000 	ldr	r3, [r0]
    bfc0:	e3530000 	cmp	r3, #0
    bfc4:	0a000001 	beq	bfd0 <rt_mb_recv+0x1d0>
    bfc8:	e1a00006 	mov	r0, r6
    bfcc:	e12fff33 	blx	r3
    bfd0:	eb000d94 	bl	f628 <rt_schedule>
    bfd4:	e3a00000 	mov	r0, #0
    bfd8:	e28dd014 	add	sp, sp, #20
    bfdc:	e8bd8ff0 	pop	{r4, r5, r6, r7, r8, r9, sl, fp, pc}
    bfe0:	e3570001 	cmp	r7, #1
    bfe4:	1affffbc 	bne	bedc <rt_mb_recv+0xdc>
    bfe8:	e5963010 	ldr	r3, [r6, #16]
    bfec:	e1550003 	cmp	r5, r3
    bff0:	0affffb4 	beq	bec8 <rt_mb_recv+0xc8>
    bff4:	e5d41031 	ldrb	r1, [r4, #49]	; 0x31
    bff8:	e5d30021 	ldrb	r0, [r3, #33]	; 0x21
    bffc:	e1500001 	cmp	r0, r1
    c000:	8a000005 	bhi	c01c <rt_mb_recv+0x21c>
    c004:	e5933000 	ldr	r3, [r3]
    c008:	e1550003 	cmp	r5, r3
    c00c:	0affffad 	beq	bec8 <rt_mb_recv+0xc8>
    c010:	e5d32021 	ldrb	r2, [r3, #33]	; 0x21
    c014:	e1520001 	cmp	r2, r1
    c018:	9afffff9 	bls	c004 <rt_mb_recv+0x204>
    c01c:	e5931004 	ldr	r1, [r3, #4]
    c020:	e581b000 	str	fp, [r1]
    c024:	e5841014 	str	r1, [r4, #20]
    c028:	e5843010 	str	r3, [r4, #16]
    c02c:	e583b004 	str	fp, [r3, #4]
    c030:	eaffffa9 	b	bedc <rt_mb_recv+0xdc>
    c034:	e59f1100 	ldr	r1, [pc, #256]	; c13c <rt_mb_recv+0x33c>
    c038:	e30c0a6c 	movw	r0, #51820	; 0xca6c
    c03c:	e3400002 	movt	r0, #2
    c040:	eb00090e 	bl	e480 <rt_kprintf>
    c044:	e30c082c 	movw	r0, #51244	; 0xc82c
    c048:	e30c1b44 	movw	r1, #52036	; 0xcb44
    c04c:	e3400002 	movt	r0, #2
    c050:	e3401002 	movt	r1, #2
    c054:	e59f20e0 	ldr	r2, [pc, #224]	; c13c <rt_mb_recv+0x33c>
    c058:	e300363b 	movw	r3, #1595	; 0x63b
    c05c:	e3a0c000 	mov	ip, #0
    c060:	e5cdc00f 	strb	ip, [sp, #15]
    c064:	eb000905 	bl	e480 <rt_kprintf>
    c068:	e5dde00f 	ldrb	lr, [sp, #15]
    c06c:	e35e0000 	cmp	lr, #0
    c070:	0afffffc 	beq	c068 <rt_mb_recv+0x268>
    c074:	eaffff8a 	b	bea4 <rt_mb_recv+0xa4>
    c078:	e59f10bc 	ldr	r1, [pc, #188]	; c13c <rt_mb_recv+0x33c>
    c07c:	e30c0aa8 	movw	r0, #51880	; 0xcaa8
    c080:	e3400002 	movt	r0, #2
    c084:	eb0008fd 	bl	e480 <rt_kprintf>
    c088:	e30c082c 	movw	r0, #51244	; 0xc82c
    c08c:	e30c1b44 	movw	r1, #52036	; 0xcb44
    c090:	e3400002 	movt	r0, #2
    c094:	e3401002 	movt	r1, #2
    c098:	e59f209c 	ldr	r2, [pc, #156]	; c13c <rt_mb_recv+0x33c>
    c09c:	e300363b 	movw	r3, #1595	; 0x63b
    c0a0:	e5cd700f 	strb	r7, [sp, #15]
    c0a4:	eb0008f5 	bl	e480 <rt_kprintf>
    c0a8:	e5dd700f 	ldrb	r7, [sp, #15]
    c0ac:	e3570000 	cmp	r7, #0
    c0b0:	0afffffc 	beq	c0a8 <rt_mb_recv+0x2a8>
    c0b4:	eaffff75 	b	be90 <rt_mb_recv+0x90>
    c0b8:	e1a0000a 	mov	r0, sl
    c0bc:	ebfff2cf 	bl	8c00 <rt_hw_interrupt_enable>
    c0c0:	e3e02001 	mvn	r2, #1
    c0c4:	e1a00002 	mov	r0, r2
    c0c8:	e584202c 	str	r2, [r4, #44]	; 0x2c
    c0cc:	eaffffc1 	b	bfd8 <rt_mb_recv+0x1d8>
    c0d0:	e30c082c 	movw	r0, #51244	; 0xc82c
    c0d4:	e30c1b08 	movw	r1, #51976	; 0xcb08
    c0d8:	e3400002 	movt	r0, #2
    c0dc:	e3401002 	movt	r1, #2
    c0e0:	e59f2054 	ldr	r2, [pc, #84]	; c13c <rt_mb_recv+0x33c>
    c0e4:	e3003616 	movw	r3, #1558	; 0x616
    c0e8:	e5cd600f 	strb	r6, [sp, #15]
    c0ec:	eb0008e3 	bl	e480 <rt_kprintf>
    c0f0:	e5dd300f 	ldrb	r3, [sp, #15]
    c0f4:	e3530000 	cmp	r3, #0
    c0f8:	0afffffc 	beq	c0f0 <rt_mb_recv+0x2f0>
    c0fc:	eaffff44 	b	be14 <rt_mb_recv+0x14>
    c100:	e1a0000a 	mov	r0, sl
    c104:	ebfff2bd 	bl	8c00 <rt_hw_interrupt_enable>
    c108:	e30f1dec 	movw	r1, #65004	; 0xfdec
    c10c:	e3401002 	movt	r1, #2
    c110:	e5913000 	ldr	r3, [r1]
    c114:	e3530000 	cmp	r3, #0
    c118:	01a00003 	moveq	r0, r3
    c11c:	0affffad 	beq	bfd8 <rt_mb_recv+0x1d8>
    c120:	e1a00006 	mov	r0, r6
    c124:	e12fff33 	blx	r3
    c128:	e3a00000 	mov	r0, #0
    c12c:	eaffffa9 	b	bfd8 <rt_mb_recv+0x1d8>
    c130:	ebfff2b2 	bl	8c00 <rt_hw_interrupt_enable>
    c134:	e3e00001 	mvn	r0, #1
    c138:	eaffffa6 	b	bfd8 <rt_mb_recv+0x1d8>
    c13c:	0002b6c4 	andeq	fp, r2, r4, asr #13

0000c140 <rt_mb_control>:
    c140:	e92d41f0 	push	{r4, r5, r6, r7, r8, lr}
    c144:	e2504000 	subs	r4, r0, #0
    c148:	e24dd008 	sub	sp, sp, #8
    c14c:	e1a05001 	mov	r5, r1
    c150:	0a00002e 	beq	c210 <rt_mb_control+0xd0>
    c154:	e3550001 	cmp	r5, #1
    c158:	13e00000 	mvnne	r0, #0
    c15c:	1a000029 	bne	c208 <rt_mb_control+0xc8>
    c160:	ebfff2a2 	bl	8bf0 <rt_hw_interrupt_disable>
    c164:	e2845010 	add	r5, r4, #16
    c168:	e1a08000 	mov	r8, r0
    c16c:	e5940010 	ldr	r0, [r4, #16]
    c170:	e1550000 	cmp	r5, r0
    c174:	0a00000b 	beq	c1a8 <rt_mb_control+0x68>
    c178:	e3e07000 	mvn	r7, #0
    c17c:	ebfff29b 	bl	8bf0 <rt_hw_interrupt_disable>
    c180:	e5952000 	ldr	r2, [r5]
    c184:	e582701c 	str	r7, [r2, #28]
    c188:	e1a06000 	mov	r6, r0
    c18c:	e2420010 	sub	r0, r2, #16
    c190:	eb000f8d 	bl	ffcc <rt_thread_resume>
    c194:	e1a00006 	mov	r0, r6
    c198:	ebfff298 	bl	8c00 <rt_hw_interrupt_enable>
    c19c:	e5951000 	ldr	r1, [r5]
    c1a0:	e1550001 	cmp	r5, r1
    c1a4:	1afffff4 	bne	c17c <rt_mb_control+0x3c>
    c1a8:	e594c024 	ldr	ip, [r4, #36]	; 0x24
    c1ac:	e2845024 	add	r5, r4, #36	; 0x24
    c1b0:	e155000c 	cmp	r5, ip
    c1b4:	0a00000b 	beq	c1e8 <rt_mb_control+0xa8>
    c1b8:	e3e07000 	mvn	r7, #0
    c1bc:	ebfff28b 	bl	8bf0 <rt_hw_interrupt_disable>
    c1c0:	e5951000 	ldr	r1, [r5]
    c1c4:	e581701c 	str	r7, [r1, #28]
    c1c8:	e1a06000 	mov	r6, r0
    c1cc:	e2410010 	sub	r0, r1, #16
    c1d0:	eb000f7d 	bl	ffcc <rt_thread_resume>
    c1d4:	e1a00006 	mov	r0, r6
    c1d8:	ebfff288 	bl	8c00 <rt_hw_interrupt_enable>
    c1dc:	e5953000 	ldr	r3, [r5]
    c1e0:	e1550003 	cmp	r5, r3
    c1e4:	1afffff4 	bne	c1bc <rt_mb_control+0x7c>
    c1e8:	e3a05000 	mov	r5, #0
    c1ec:	e1a00008 	mov	r0, r8
    c1f0:	e1c451be 	strh	r5, [r4, #30]
    c1f4:	e1c452b0 	strh	r5, [r4, #32]
    c1f8:	e1c452b2 	strh	r5, [r4, #34]	; 0x22
    c1fc:	ebfff27f 	bl	8c00 <rt_hw_interrupt_enable>
    c200:	eb000d08 	bl	f628 <rt_schedule>
    c204:	e1a00005 	mov	r0, r5
    c208:	e28dd008 	add	sp, sp, #8
    c20c:	e8bd81f0 	pop	{r4, r5, r6, r7, r8, pc}
    c210:	e30c082c 	movw	r0, #51244	; 0xc82c
    c214:	e30c1b08 	movw	r1, #51976	; 0xcb08
    c218:	e3400002 	movt	r0, #2
    c21c:	e3401002 	movt	r1, #2
    c220:	e59f2018 	ldr	r2, [pc, #24]	; c240 <rt_mb_control+0x100>
    c224:	e3003699 	movw	r3, #1689	; 0x699
    c228:	e5cd4007 	strb	r4, [sp, #7]
    c22c:	eb000893 	bl	e480 <rt_kprintf>
    c230:	e5dd3007 	ldrb	r3, [sp, #7]
    c234:	e3530000 	cmp	r3, #0
    c238:	0afffffc 	beq	c230 <rt_mb_control+0xf0>
    c23c:	eaffffc4 	b	c154 <rt_mb_control+0x14>
    c240:	0002b6d0 	ldrdeq	fp, [r2], -r0

0000c244 <rt_mq_init>:
    c244:	e92d40f0 	push	{r4, r5, r6, r7, lr}
    c248:	e2504000 	subs	r4, r0, #0
    c24c:	e24dd00c 	sub	sp, sp, #12
    c250:	e1a07001 	mov	r7, r1
    c254:	e1a05002 	mov	r5, r2
    c258:	e1a06003 	mov	r6, r3
    c25c:	0a000034 	beq	c334 <rt_mq_init+0xf0>
    c260:	e1a00004 	mov	r0, r4
    c264:	e3a01005 	mov	r1, #5
    c268:	e1a02007 	mov	r2, r7
    c26c:	e2866003 	add	r6, r6, #3
    c270:	eb000bb4 	bl	f148 <rt_object_init>
    c274:	e30f0ffc 	movw	r0, #65532	; 0xfffc
    c278:	e5dd1024 	ldrb	r1, [sp, #36]	; 0x24
    c27c:	e006c000 	and	ip, r6, r0
    c280:	e28c6004 	add	r6, ip, #4
    c284:	e2842010 	add	r2, r4, #16
    c288:	e59d0020 	ldr	r0, [sp, #32]
    c28c:	e5c41007 	strb	r1, [r4, #7]
    c290:	e1a01006 	mov	r1, r6
    c294:	e5842014 	str	r2, [r4, #20]
    c298:	e5842010 	str	r2, [r4, #16]
    c29c:	e5845018 	str	r5, [r4, #24]
    c2a0:	e1c4c1bc 	strh	ip, [r4, #28]
    c2a4:	eb007597 	bl	29908 <__aeabi_uidiv>
    c2a8:	e3a03000 	mov	r3, #0
    c2ac:	e5843024 	str	r3, [r4, #36]	; 0x24
    c2b0:	e5843028 	str	r3, [r4, #40]	; 0x28
    c2b4:	e584302c 	str	r3, [r4, #44]	; 0x2c
    c2b8:	e6ff0070 	uxth	r0, r0
    c2bc:	e1c401be 	strh	r0, [r4, #30]
    c2c0:	e1500003 	cmp	r0, r3
    c2c4:	0a00000c 	beq	c2fc <rt_mq_init+0xb8>
    c2c8:	e3100001 	tst	r0, #1
    c2cc:	e1a01005 	mov	r1, r5
    c2d0:	e1a0c003 	mov	ip, r3
    c2d4:	1a00000e 	bne	c314 <rt_mq_init+0xd0>
    c2d8:	e3a0c001 	mov	ip, #1
    c2dc:	e150000c 	cmp	r0, ip
    c2e0:	e1a01005 	mov	r1, r5
    c2e4:	e6813006 	str	r3, [r1], r6
    c2e8:	c1a03005 	movgt	r3, r5
    c2ec:	ca000008 	bgt	c314 <rt_mq_init+0xd0>
    c2f0:	e2403001 	sub	r3, r0, #1
    c2f4:	e0255396 	mla	r5, r6, r3, r5
    c2f8:	e584502c 	str	r5, [r4, #44]	; 0x2c
    c2fc:	e3a00000 	mov	r0, #0
    c300:	e1c402b0 	strh	r0, [r4, #32]
    c304:	e28dd00c 	add	sp, sp, #12
    c308:	e8bd80f0 	pop	{r4, r5, r6, r7, pc}
    c30c:	e7811006 	str	r1, [r1, r6]
    c310:	e0821006 	add	r1, r2, r6
    c314:	e28ce001 	add	lr, ip, #1
    c318:	e1a02001 	mov	r2, r1
    c31c:	e150000e 	cmp	r0, lr
    c320:	e6823006 	str	r3, [r2], r6
    c324:	e28ec001 	add	ip, lr, #1
    c328:	e1a03002 	mov	r3, r2
    c32c:	cafffff6 	bgt	c30c <rt_mq_init+0xc8>
    c330:	eaffffee 	b	c2f0 <rt_mq_init+0xac>
    c334:	e30c082c 	movw	r0, #51244	; 0xc82c
    c338:	e30c1b18 	movw	r1, #51992	; 0xcb18
    c33c:	e3400002 	movt	r0, #2
    c340:	e3401002 	movt	r1, #2
    c344:	e59f2018 	ldr	r2, [pc, #24]	; c364 <rt_mq_init+0x120>
    c348:	e30036d5 	movw	r3, #1749	; 0x6d5
    c34c:	e5cd4007 	strb	r4, [sp, #7]
    c350:	eb00084a 	bl	e480 <rt_kprintf>
    c354:	e5dd3007 	ldrb	r3, [sp, #7]
    c358:	e3530000 	cmp	r3, #0
    c35c:	0afffffc 	beq	c354 <rt_mq_init+0x110>
    c360:	eaffffbe 	b	c260 <rt_mq_init+0x1c>
    c364:	0002b6e0 	andeq	fp, r2, r0, ror #13

0000c368 <rt_mq_detach>:
    c368:	e92d40f0 	push	{r4, r5, r6, r7, lr}
    c36c:	e2504000 	subs	r4, r0, #0
    c370:	e24dd00c 	sub	sp, sp, #12
    c374:	0a000014 	beq	c3cc <rt_mq_detach+0x64>
    c378:	e5940010 	ldr	r0, [r4, #16]
    c37c:	e2845010 	add	r5, r4, #16
    c380:	e1550000 	cmp	r5, r0
    c384:	0a00000b 	beq	c3b8 <rt_mq_detach+0x50>
    c388:	e3e07000 	mvn	r7, #0
    c38c:	ebfff217 	bl	8bf0 <rt_hw_interrupt_disable>
    c390:	e5952000 	ldr	r2, [r5]
    c394:	e582701c 	str	r7, [r2, #28]
    c398:	e1a06000 	mov	r6, r0
    c39c:	e2420010 	sub	r0, r2, #16
    c3a0:	eb000f09 	bl	ffcc <rt_thread_resume>
    c3a4:	e1a00006 	mov	r0, r6
    c3a8:	ebfff214 	bl	8c00 <rt_hw_interrupt_enable>
    c3ac:	e5951000 	ldr	r1, [r5]
    c3b0:	e1550001 	cmp	r5, r1
    c3b4:	1afffff4 	bne	c38c <rt_mq_detach+0x24>
    c3b8:	e1a00004 	mov	r0, r4
    c3bc:	eb000b7d 	bl	f1b8 <rt_object_detach>
    c3c0:	e3a00000 	mov	r0, #0
    c3c4:	e28dd00c 	add	sp, sp, #12
    c3c8:	e8bd80f0 	pop	{r4, r5, r6, r7, pc}
    c3cc:	e30c082c 	movw	r0, #51244	; 0xc82c
    c3d0:	e30c1b18 	movw	r1, #51992	; 0xcb18
    c3d4:	e3400002 	movt	r0, #2
    c3d8:	e3401002 	movt	r1, #2
    c3dc:	e59f2018 	ldr	r2, [pc, #24]	; c3fc <rt_mq_detach+0x94>
    c3e0:	e3003706 	movw	r3, #1798	; 0x706
    c3e4:	e5cd4007 	strb	r4, [sp, #7]
    c3e8:	eb000824 	bl	e480 <rt_kprintf>
    c3ec:	e5dd3007 	ldrb	r3, [sp, #7]
    c3f0:	e3530000 	cmp	r3, #0
    c3f4:	0afffffc 	beq	c3ec <rt_mq_detach+0x84>
    c3f8:	eaffffde 	b	c378 <rt_mq_detach+0x10>
    c3fc:	0002b6ec 	andeq	fp, r2, ip, ror #13

0000c400 <rt_mq_delete>:
    c400:	e92d40f0 	push	{r4, r5, r6, r7, lr}
    c404:	e24dd00c 	sub	sp, sp, #12
    c408:	e1a04000 	mov	r4, r0
    c40c:	ebfff1f7 	bl	8bf0 <rt_hw_interrupt_disable>
    c410:	e1a05000 	mov	r5, r0
    c414:	eb0002a5 	bl	ceb0 <rt_interrupt_get_nest>
    c418:	e3500000 	cmp	r0, #0
    c41c:	1a00001a 	bne	c48c <rt_mq_delete+0x8c>
    c420:	e1a00005 	mov	r0, r5
    c424:	ebfff1f5 	bl	8c00 <rt_hw_interrupt_enable>
    c428:	e3540000 	cmp	r4, #0
    c42c:	0a00002a 	beq	c4dc <rt_mq_delete+0xdc>
    c430:	e5941010 	ldr	r1, [r4, #16]
    c434:	e2845010 	add	r5, r4, #16
    c438:	e1550001 	cmp	r5, r1
    c43c:	0a00000b 	beq	c470 <rt_mq_delete+0x70>
    c440:	e3e07000 	mvn	r7, #0
    c444:	ebfff1e9 	bl	8bf0 <rt_hw_interrupt_disable>
    c448:	e595c000 	ldr	ip, [r5]
    c44c:	e58c701c 	str	r7, [ip, #28]
    c450:	e1a06000 	mov	r6, r0
    c454:	e24c0010 	sub	r0, ip, #16
    c458:	eb000edb 	bl	ffcc <rt_thread_resume>
    c45c:	e1a00006 	mov	r0, r6
    c460:	ebfff1e6 	bl	8c00 <rt_hw_interrupt_enable>
    c464:	e5952000 	ldr	r2, [r5]
    c468:	e1550002 	cmp	r5, r2
    c46c:	1afffff4 	bne	c444 <rt_mq_delete+0x44>
    c470:	e5940018 	ldr	r0, [r4, #24]
    c474:	eb000a13 	bl	ecc8 <rt_free>
    c478:	e1a00004 	mov	r0, r4
    c47c:	eb000bad 	bl	f338 <rt_object_delete>
    c480:	e3a00000 	mov	r0, #0
    c484:	e28dd00c 	add	sp, sp, #12
    c488:	e8bd80f0 	pop	{r4, r5, r6, r7, pc}
    c48c:	e59f1078 	ldr	r1, [pc, #120]	; c50c <rt_mq_delete+0x10c>
    c490:	e30c0a6c 	movw	r0, #51820	; 0xca6c
    c494:	e3400002 	movt	r0, #2
    c498:	eb0007f8 	bl	e480 <rt_kprintf>
    c49c:	e30c082c 	movw	r0, #51244	; 0xc82c
    c4a0:	e30c1b44 	movw	r1, #52036	; 0xcb44
    c4a4:	e3400002 	movt	r0, #2
    c4a8:	e3401002 	movt	r1, #2
    c4ac:	e59f2058 	ldr	r2, [pc, #88]	; c50c <rt_mq_delete+0x10c>
    c4b0:	e3a03e76 	mov	r3, #1888	; 0x760
    c4b4:	e3a0c000 	mov	ip, #0
    c4b8:	e5cdc007 	strb	ip, [sp, #7]
    c4bc:	eb0007ef 	bl	e480 <rt_kprintf>
    c4c0:	e5dd3007 	ldrb	r3, [sp, #7]
    c4c4:	e3530000 	cmp	r3, #0
    c4c8:	0afffffc 	beq	c4c0 <rt_mq_delete+0xc0>
    c4cc:	e1a00005 	mov	r0, r5
    c4d0:	ebfff1ca 	bl	8c00 <rt_hw_interrupt_enable>
    c4d4:	e3540000 	cmp	r4, #0
    c4d8:	1affffd4 	bne	c430 <rt_mq_delete+0x30>
    c4dc:	e30c082c 	movw	r0, #51244	; 0xc82c
    c4e0:	e30c1b18 	movw	r1, #51992	; 0xcb18
    c4e4:	e3400002 	movt	r0, #2
    c4e8:	e3401002 	movt	r1, #2
    c4ec:	e59f2018 	ldr	r2, [pc, #24]	; c50c <rt_mq_delete+0x10c>
    c4f0:	e3003763 	movw	r3, #1891	; 0x763
    c4f4:	e5cd4007 	strb	r4, [sp, #7]
    c4f8:	eb0007e0 	bl	e480 <rt_kprintf>
    c4fc:	e5dd0007 	ldrb	r0, [sp, #7]
    c500:	e3500000 	cmp	r0, #0
    c504:	0afffffc 	beq	c4fc <rt_mq_delete+0xfc>
    c508:	eaffffc8 	b	c430 <rt_mq_delete+0x30>
    c50c:	0002b6fc 	strdeq	fp, [r2], -ip

0000c510 <rt_mq_create>:
    c510:	e92d41f0 	push	{r4, r5, r6, r7, r8, lr}
    c514:	e24dd008 	sub	sp, sp, #8
    c518:	e1a07001 	mov	r7, r1
    c51c:	e1a06002 	mov	r6, r2
    c520:	e1a08003 	mov	r8, r3
    c524:	e1a04000 	mov	r4, r0
    c528:	ebfff1b0 	bl	8bf0 <rt_hw_interrupt_disable>
    c52c:	e1a05000 	mov	r5, r0
    c530:	eb00025e 	bl	ceb0 <rt_interrupt_get_nest>
    c534:	e3500000 	cmp	r0, #0
    c538:	1a00003b 	bne	c62c <rt_mq_create+0x11c>
    c53c:	e1a00005 	mov	r0, r5
    c540:	ebfff1ae 	bl	8c00 <rt_hw_interrupt_enable>
    c544:	e1a01004 	mov	r1, r4
    c548:	e3a00005 	mov	r0, #5
    c54c:	eb000b3d 	bl	f248 <rt_object_allocate>
    c550:	e2504000 	subs	r4, r0, #0
    c554:	0a000027 	beq	c5f8 <rt_mq_create+0xe8>
    c558:	e2877003 	add	r7, r7, #3
    c55c:	e30feffc 	movw	lr, #65532	; 0xfffc
    c560:	e007100e 	and	r1, r7, lr
    c564:	e6ff6076 	uxth	r6, r6
    c568:	e2810004 	add	r0, r1, #4
    c56c:	e2842010 	add	r2, r4, #16
    c570:	e5c48007 	strb	r8, [r4, #7]
    c574:	e5842014 	str	r2, [r4, #20]
    c578:	e5842010 	str	r2, [r4, #16]
    c57c:	e1c411bc 	strh	r1, [r4, #28]
    c580:	e1c461be 	strh	r6, [r4, #30]
    c584:	e0000096 	mul	r0, r6, r0
    c588:	eb0008e6 	bl	e928 <rt_malloc>
    c58c:	e2503000 	subs	r3, r0, #0
    c590:	e5840018 	str	r0, [r4, #24]
    c594:	0a000035 	beq	c670 <rt_mq_create+0x160>
    c598:	e1d461be 	ldrh	r6, [r4, #30]
    c59c:	e3a0c000 	mov	ip, #0
    c5a0:	e584c024 	str	ip, [r4, #36]	; 0x24
    c5a4:	e156000c 	cmp	r6, ip
    c5a8:	e584c028 	str	ip, [r4, #40]	; 0x28
    c5ac:	e584c02c 	str	ip, [r4, #44]	; 0x2c
    c5b0:	0a00000e 	beq	c5f0 <rt_mq_create+0xe0>
    c5b4:	e1d451bc 	ldrh	r5, [r4, #28]
    c5b8:	e3160001 	tst	r6, #1
    c5bc:	e1a01000 	mov	r1, r0
    c5c0:	e1a0000c 	mov	r0, ip
    c5c4:	e2855004 	add	r5, r5, #4
    c5c8:	1a00000f 	bne	c60c <rt_mq_create+0xfc>
    c5cc:	e3a00001 	mov	r0, #1
    c5d0:	e1560000 	cmp	r6, r0
    c5d4:	e1a01003 	mov	r1, r3
    c5d8:	e681c005 	str	ip, [r1], r5
    c5dc:	c1a0c003 	movgt	ip, r3
    c5e0:	ca000009 	bgt	c60c <rt_mq_create+0xfc>
    c5e4:	e2466001 	sub	r6, r6, #1
    c5e8:	e02c3596 	mla	ip, r6, r5, r3
    c5ec:	e584c02c 	str	ip, [r4, #44]	; 0x2c
    c5f0:	e3a03000 	mov	r3, #0
    c5f4:	e1c432b0 	strh	r3, [r4, #32]
    c5f8:	e1a00004 	mov	r0, r4
    c5fc:	e28dd008 	add	sp, sp, #8
    c600:	e8bd81f0 	pop	{r4, r5, r6, r7, r8, pc}
    c604:	e7811005 	str	r1, [r1, r5]
    c608:	e0821005 	add	r1, r2, r5
    c60c:	e2800001 	add	r0, r0, #1
    c610:	e1a02001 	mov	r2, r1
    c614:	e1560000 	cmp	r6, r0
    c618:	e682c005 	str	ip, [r2], r5
    c61c:	e2800001 	add	r0, r0, #1
    c620:	e1a0c002 	mov	ip, r2
    c624:	cafffff6 	bgt	c604 <rt_mq_create+0xf4>
    c628:	eaffffed 	b	c5e4 <rt_mq_create+0xd4>
    c62c:	e59f104c 	ldr	r1, [pc, #76]	; c680 <rt_mq_create+0x170>
    c630:	e30c0a6c 	movw	r0, #51820	; 0xca6c
    c634:	e3400002 	movt	r0, #2
    c638:	eb000790 	bl	e480 <rt_kprintf>
    c63c:	e30c082c 	movw	r0, #51244	; 0xc82c
    c640:	e30c1b44 	movw	r1, #52036	; 0xcb44
    c644:	e3400002 	movt	r0, #2
    c648:	e3401002 	movt	r1, #2
    c64c:	e59f202c 	ldr	r2, [pc, #44]	; c680 <rt_mq_create+0x170>
    c650:	e3003726 	movw	r3, #1830	; 0x726
    c654:	e3a0c000 	mov	ip, #0
    c658:	e5cdc007 	strb	ip, [sp, #7]
    c65c:	eb000787 	bl	e480 <rt_kprintf>
    c660:	e5dd3007 	ldrb	r3, [sp, #7]
    c664:	e3530000 	cmp	r3, #0
    c668:	0afffffc 	beq	c660 <rt_mq_create+0x150>
    c66c:	eaffffb2 	b	c53c <rt_mq_create+0x2c>
    c670:	e1a00004 	mov	r0, r4
    c674:	e1a04003 	mov	r4, r3
    c678:	ebffff60 	bl	c400 <rt_mq_delete>
    c67c:	eaffffdd 	b	c5f8 <rt_mq_create+0xe8>
    c680:	0002b70c 	andeq	fp, r2, ip, lsl #14

0000c684 <rt_mq_send>:
    c684:	e92d40f0 	push	{r4, r5, r6, r7, lr}
    c688:	e2504000 	subs	r4, r0, #0
    c68c:	e24dd00c 	sub	sp, sp, #12
    c690:	e1a06001 	mov	r6, r1
    c694:	e1a05002 	mov	r5, r2
    c698:	0a00004f 	beq	c7dc <rt_mq_send+0x158>
    c69c:	e3560000 	cmp	r6, #0
    c6a0:	0a000041 	beq	c7ac <rt_mq_send+0x128>
    c6a4:	e3550000 	cmp	r5, #0
    c6a8:	0a00002f 	beq	c76c <rt_mq_send+0xe8>
    c6ac:	e1d421bc 	ldrh	r2, [r4, #28]
    c6b0:	e1550002 	cmp	r5, r2
    c6b4:	83e00000 	mvnhi	r0, #0
    c6b8:	8a000029 	bhi	c764 <rt_mq_send+0xe0>
    c6bc:	e30f7de8 	movw	r7, #65000	; 0xfde8
    c6c0:	e3407002 	movt	r7, #2
    c6c4:	e5973000 	ldr	r3, [r7]
    c6c8:	e3530000 	cmp	r3, #0
    c6cc:	0a000001 	beq	c6d8 <rt_mq_send+0x54>
    c6d0:	e1a00004 	mov	r0, r4
    c6d4:	e12fff33 	blx	r3
    c6d8:	ebfff144 	bl	8bf0 <rt_hw_interrupt_disable>
    c6dc:	e594702c 	ldr	r7, [r4, #44]	; 0x2c
    c6e0:	e3570000 	cmp	r7, #0
    c6e4:	0a000048 	beq	c80c <rt_mq_send+0x188>
    c6e8:	e597e000 	ldr	lr, [r7]
    c6ec:	e584e02c 	str	lr, [r4, #44]	; 0x2c
    c6f0:	ebfff142 	bl	8c00 <rt_hw_interrupt_enable>
    c6f4:	e1a00007 	mov	r0, r7
    c6f8:	e1a02005 	mov	r2, r5
    c6fc:	e1a01006 	mov	r1, r6
    c700:	e3a05000 	mov	r5, #0
    c704:	e4805004 	str	r5, [r0], #4
    c708:	eb000360 	bl	d490 <rt_memcpy>
    c70c:	ebfff137 	bl	8bf0 <rt_hw_interrupt_disable>
    c710:	e5942028 	ldr	r2, [r4, #40]	; 0x28
    c714:	e1a0c004 	mov	ip, r4
    c718:	e1d412b0 	ldrh	r1, [r4, #32]
    c71c:	e3520000 	cmp	r2, #0
    c720:	15827000 	strne	r7, [r2]
    c724:	e2813001 	add	r3, r1, #1
    c728:	e5847028 	str	r7, [r4, #40]	; 0x28
    c72c:	e1a05000 	mov	r5, r0
    c730:	e5940024 	ldr	r0, [r4, #36]	; 0x24
    c734:	e3500000 	cmp	r0, #0
    c738:	e5bc0010 	ldr	r0, [ip, #16]!
    c73c:	05847024 	streq	r7, [r4, #36]	; 0x24
    c740:	e150000c 	cmp	r0, ip
    c744:	e1c432b0 	strh	r3, [r4, #32]
    c748:	0a000013 	beq	c79c <rt_mq_send+0x118>
    c74c:	e2400010 	sub	r0, r0, #16
    c750:	eb000e1d 	bl	ffcc <rt_thread_resume>
    c754:	e1a00005 	mov	r0, r5
    c758:	ebfff128 	bl	8c00 <rt_hw_interrupt_enable>
    c75c:	eb000bb1 	bl	f628 <rt_schedule>
    c760:	e3a00000 	mov	r0, #0
    c764:	e28dd00c 	add	sp, sp, #12
    c768:	e8bd80f0 	pop	{r4, r5, r6, r7, pc}
    c76c:	e30c082c 	movw	r0, #51244	; 0xc82c
    c770:	e30c1b3c 	movw	r1, #52028	; 0xcb3c
    c774:	e3400002 	movt	r0, #2
    c778:	e3401002 	movt	r1, #2
    c77c:	e59f2094 	ldr	r2, [pc, #148]	; c818 <rt_mq_send+0x194>
    c780:	e300378b 	movw	r3, #1931	; 0x78b
    c784:	e5cd5007 	strb	r5, [sp, #7]
    c788:	eb00073c 	bl	e480 <rt_kprintf>
    c78c:	e5dd0007 	ldrb	r0, [sp, #7]
    c790:	e3500000 	cmp	r0, #0
    c794:	0afffffc 	beq	c78c <rt_mq_send+0x108>
    c798:	eaffffc7 	b	c6bc <rt_mq_send+0x38>
    c79c:	e1a00005 	mov	r0, r5
    c7a0:	ebfff116 	bl	8c00 <rt_hw_interrupt_enable>
    c7a4:	e3a00000 	mov	r0, #0
    c7a8:	eaffffed 	b	c764 <rt_mq_send+0xe0>
    c7ac:	e30c082c 	movw	r0, #51244	; 0xc82c
    c7b0:	e30c1b28 	movw	r1, #52008	; 0xcb28
    c7b4:	e3400002 	movt	r0, #2
    c7b8:	e3401002 	movt	r1, #2
    c7bc:	e59f2054 	ldr	r2, [pc, #84]	; c818 <rt_mq_send+0x194>
    c7c0:	e300378a 	movw	r3, #1930	; 0x78a
    c7c4:	e5cd6007 	strb	r6, [sp, #7]
    c7c8:	eb00072c 	bl	e480 <rt_kprintf>
    c7cc:	e5dd1007 	ldrb	r1, [sp, #7]
    c7d0:	e3510000 	cmp	r1, #0
    c7d4:	0afffffc 	beq	c7cc <rt_mq_send+0x148>
    c7d8:	eaffffb1 	b	c6a4 <rt_mq_send+0x20>
    c7dc:	e30c082c 	movw	r0, #51244	; 0xc82c
    c7e0:	e30c1b18 	movw	r1, #51992	; 0xcb18
    c7e4:	e3400002 	movt	r0, #2
    c7e8:	e3401002 	movt	r1, #2
    c7ec:	e59f2024 	ldr	r2, [pc, #36]	; c818 <rt_mq_send+0x194>
    c7f0:	e3003789 	movw	r3, #1929	; 0x789
    c7f4:	e5cd4007 	strb	r4, [sp, #7]
    c7f8:	eb000720 	bl	e480 <rt_kprintf>
    c7fc:	e5dd3007 	ldrb	r3, [sp, #7]
    c800:	e3530000 	cmp	r3, #0
    c804:	0afffffc 	beq	c7fc <rt_mq_send+0x178>
    c808:	eaffffa3 	b	c69c <rt_mq_send+0x18>
    c80c:	ebfff0fb 	bl	8c00 <rt_hw_interrupt_enable>
    c810:	e3e00002 	mvn	r0, #2
    c814:	eaffffd2 	b	c764 <rt_mq_send+0xe0>
    c818:	0002b71c 	andeq	fp, r2, ip, lsl r7

0000c81c <rt_mq_urgent>:
    c81c:	e92d41f0 	push	{r4, r5, r6, r7, r8, lr}
    c820:	e2504000 	subs	r4, r0, #0
    c824:	e24dd008 	sub	sp, sp, #8
    c828:	e1a06001 	mov	r6, r1
    c82c:	e1a05002 	mov	r5, r2
    c830:	0a00004d 	beq	c96c <rt_mq_urgent+0x150>
    c834:	e3560000 	cmp	r6, #0
    c838:	0a00003f 	beq	c93c <rt_mq_urgent+0x120>
    c83c:	e3550000 	cmp	r5, #0
    c840:	0a00002d 	beq	c8fc <rt_mq_urgent+0xe0>
    c844:	e1d421bc 	ldrh	r2, [r4, #28]
    c848:	e1550002 	cmp	r5, r2
    c84c:	83e00000 	mvnhi	r0, #0
    c850:	8a000027 	bhi	c8f4 <rt_mq_urgent+0xd8>
    c854:	e30f7de8 	movw	r7, #65000	; 0xfde8
    c858:	e3407002 	movt	r7, #2
    c85c:	e5973000 	ldr	r3, [r7]
    c860:	e3530000 	cmp	r3, #0
    c864:	0a000001 	beq	c870 <rt_mq_urgent+0x54>
    c868:	e1a00004 	mov	r0, r4
    c86c:	e12fff33 	blx	r3
    c870:	ebfff0de 	bl	8bf0 <rt_hw_interrupt_disable>
    c874:	e594702c 	ldr	r7, [r4, #44]	; 0x2c
    c878:	e3570000 	cmp	r7, #0
    c87c:	0a000046 	beq	c99c <rt_mq_urgent+0x180>
    c880:	e1a08007 	mov	r8, r7
    c884:	e498e004 	ldr	lr, [r8], #4
    c888:	e584e02c 	str	lr, [r4, #44]	; 0x2c
    c88c:	ebfff0db 	bl	8c00 <rt_hw_interrupt_enable>
    c890:	e1a02005 	mov	r2, r5
    c894:	e1a01006 	mov	r1, r6
    c898:	e1a00008 	mov	r0, r8
    c89c:	eb0002fb 	bl	d490 <rt_memcpy>
    c8a0:	ebfff0d2 	bl	8bf0 <rt_hw_interrupt_disable>
    c8a4:	e1a0c004 	mov	ip, r4
    c8a8:	e5942028 	ldr	r2, [r4, #40]	; 0x28
    c8ac:	e1d412b0 	ldrh	r1, [r4, #32]
    c8b0:	e3520000 	cmp	r2, #0
    c8b4:	e2813001 	add	r3, r1, #1
    c8b8:	e1a05000 	mov	r5, r0
    c8bc:	e5940024 	ldr	r0, [r4, #36]	; 0x24
    c8c0:	e5870000 	str	r0, [r7]
    c8c4:	e5bc0010 	ldr	r0, [ip, #16]!
    c8c8:	05847028 	streq	r7, [r4, #40]	; 0x28
    c8cc:	e150000c 	cmp	r0, ip
    c8d0:	e5847024 	str	r7, [r4, #36]	; 0x24
    c8d4:	e1c432b0 	strh	r3, [r4, #32]
    c8d8:	0a000013 	beq	c92c <rt_mq_urgent+0x110>
    c8dc:	e2400010 	sub	r0, r0, #16
    c8e0:	eb000db9 	bl	ffcc <rt_thread_resume>
    c8e4:	e1a00005 	mov	r0, r5
    c8e8:	ebfff0c4 	bl	8c00 <rt_hw_interrupt_enable>
    c8ec:	eb000b4d 	bl	f628 <rt_schedule>
    c8f0:	e3a00000 	mov	r0, #0
    c8f4:	e28dd008 	add	sp, sp, #8
    c8f8:	e8bd81f0 	pop	{r4, r5, r6, r7, r8, pc}
    c8fc:	e30c082c 	movw	r0, #51244	; 0xc82c
    c900:	e30c1b3c 	movw	r1, #52028	; 0xcb3c
    c904:	e3400002 	movt	r0, #2
    c908:	e3401002 	movt	r1, #2
    c90c:	e59f2094 	ldr	r2, [pc, #148]	; c9a8 <rt_mq_urgent+0x18c>
    c910:	e30037e3 	movw	r3, #2019	; 0x7e3
    c914:	e5cd5007 	strb	r5, [sp, #7]
    c918:	eb0006d8 	bl	e480 <rt_kprintf>
    c91c:	e5dd0007 	ldrb	r0, [sp, #7]
    c920:	e3500000 	cmp	r0, #0
    c924:	0afffffc 	beq	c91c <rt_mq_urgent+0x100>
    c928:	eaffffc9 	b	c854 <rt_mq_urgent+0x38>
    c92c:	e1a00005 	mov	r0, r5
    c930:	ebfff0b2 	bl	8c00 <rt_hw_interrupt_enable>
    c934:	e3a00000 	mov	r0, #0
    c938:	eaffffed 	b	c8f4 <rt_mq_urgent+0xd8>
    c93c:	e30c082c 	movw	r0, #51244	; 0xc82c
    c940:	e30c1b28 	movw	r1, #52008	; 0xcb28
    c944:	e3400002 	movt	r0, #2
    c948:	e3401002 	movt	r1, #2
    c94c:	e59f2054 	ldr	r2, [pc, #84]	; c9a8 <rt_mq_urgent+0x18c>
    c950:	e30037e2 	movw	r3, #2018	; 0x7e2
    c954:	e5cd6007 	strb	r6, [sp, #7]
    c958:	eb0006c8 	bl	e480 <rt_kprintf>
    c95c:	e5dd1007 	ldrb	r1, [sp, #7]
    c960:	e3510000 	cmp	r1, #0
    c964:	0afffffc 	beq	c95c <rt_mq_urgent+0x140>
    c968:	eaffffb3 	b	c83c <rt_mq_urgent+0x20>
    c96c:	e30c082c 	movw	r0, #51244	; 0xc82c
    c970:	e30c1b18 	movw	r1, #51992	; 0xcb18
    c974:	e3400002 	movt	r0, #2
    c978:	e3401002 	movt	r1, #2
    c97c:	e59f2024 	ldr	r2, [pc, #36]	; c9a8 <rt_mq_urgent+0x18c>
    c980:	e30037e1 	movw	r3, #2017	; 0x7e1
    c984:	e5cd4007 	strb	r4, [sp, #7]
    c988:	eb0006bc 	bl	e480 <rt_kprintf>
    c98c:	e5dd3007 	ldrb	r3, [sp, #7]
    c990:	e3530000 	cmp	r3, #0
    c994:	0afffffc 	beq	c98c <rt_mq_urgent+0x170>
    c998:	eaffffa5 	b	c834 <rt_mq_urgent+0x18>
    c99c:	ebfff097 	bl	8c00 <rt_hw_interrupt_enable>
    c9a0:	e3e00002 	mvn	r0, #2
    c9a4:	eaffffd2 	b	c8f4 <rt_mq_urgent+0xd8>
    c9a8:	0002b728 	andeq	fp, r2, r8, lsr #14

0000c9ac <rt_mq_recv>:
    c9ac:	e92d4ff0 	push	{r4, r5, r6, r7, r8, r9, sl, fp, lr}
    c9b0:	e2506000 	subs	r6, r0, #0
    c9b4:	e24dd01c 	sub	sp, sp, #28
    c9b8:	e58d1008 	str	r1, [sp, #8]
    c9bc:	e58d2004 	str	r2, [sp, #4]
    c9c0:	e58d300c 	str	r3, [sp, #12]
    c9c4:	0a0000d7 	beq	cd28 <rt_mq_recv+0x37c>
    c9c8:	e59dc008 	ldr	ip, [sp, #8]
    c9cc:	e35c0000 	cmp	ip, #0
    c9d0:	0a0000c8 	beq	ccf8 <rt_mq_recv+0x34c>
    c9d4:	e59dc004 	ldr	ip, [sp, #4]
    c9d8:	e35c0000 	cmp	ip, #0
    c9dc:	0a0000b9 	beq	ccc8 <rt_mq_recv+0x31c>
    c9e0:	eb000c9c 	bl	fc58 <rt_thread_self>
    c9e4:	e30f2df0 	movw	r2, #65008	; 0xfdf0
    c9e8:	e3402002 	movt	r2, #2
    c9ec:	e5923000 	ldr	r3, [r2]
    c9f0:	e3530000 	cmp	r3, #0
    c9f4:	e1a04000 	mov	r4, r0
    c9f8:	0a000001 	beq	ca04 <rt_mq_recv+0x58>
    c9fc:	e1a00006 	mov	r0, r6
    ca00:	e12fff33 	blx	r3
    ca04:	ebfff079 	bl	8bf0 <rt_hw_interrupt_disable>
    ca08:	e59d800c 	ldr	r8, [sp, #12]
    ca0c:	e1d672b0 	ldrh	r7, [r6, #32]
    ca10:	e3580000 	cmp	r8, #0
    ca14:	03570000 	cmpeq	r7, #0
    ca18:	13a08000 	movne	r8, #0
    ca1c:	03a08001 	moveq	r8, #1
    ca20:	e1a0a000 	mov	sl, r0
    ca24:	0a0000cb 	beq	cd58 <rt_mq_recv+0x3ac>
    ca28:	e3570000 	cmp	r7, #0
    ca2c:	e284c010 	add	ip, r4, #16
    ca30:	e1a0b008 	mov	fp, r8
    ca34:	e2865010 	add	r5, r6, #16
    ca38:	e58dc000 	str	ip, [sp]
    ca3c:	1a00003c 	bne	cb34 <rt_mq_recv+0x188>
    ca40:	ebfff06a 	bl	8bf0 <rt_hw_interrupt_disable>
    ca44:	e1a09000 	mov	r9, r0
    ca48:	eb000c82 	bl	fc58 <rt_thread_self>
    ca4c:	e3500000 	cmp	r0, #0
    ca50:	0a00008c 	beq	cc88 <rt_mq_recv+0x2dc>
    ca54:	ebfff065 	bl	8bf0 <rt_hw_interrupt_disable>
    ca58:	e1a07000 	mov	r7, r0
    ca5c:	eb000113 	bl	ceb0 <rt_interrupt_get_nest>
    ca60:	e3500000 	cmp	r0, #0
    ca64:	1a00006a 	bne	cc14 <rt_mq_recv+0x268>
    ca68:	e1a00007 	mov	r0, r7
    ca6c:	ebfff063 	bl	8c00 <rt_hw_interrupt_enable>
    ca70:	e1a00009 	mov	r0, r9
    ca74:	ebfff061 	bl	8c00 <rt_hw_interrupt_enable>
    ca78:	e59d300c 	ldr	r3, [sp, #12]
    ca7c:	e584b02c 	str	fp, [r4, #44]	; 0x2c
    ca80:	e3530000 	cmp	r3, #0
    ca84:	0a000079 	beq	cc70 <rt_mq_recv+0x2c4>
    ca88:	e5d67007 	ldrb	r7, [r6, #7]
    ca8c:	e1a00004 	mov	r0, r4
    ca90:	eb000d00 	bl	fe98 <rt_thread_suspend>
    ca94:	e3570000 	cmp	r7, #0
    ca98:	1a000047 	bne	cbbc <rt_mq_recv+0x210>
    ca9c:	e5963014 	ldr	r3, [r6, #20]
    caa0:	e59d1000 	ldr	r1, [sp]
    caa4:	e5831000 	str	r1, [r3]
    caa8:	e5843014 	str	r3, [r4, #20]
    caac:	e5845010 	str	r5, [r4, #16]
    cab0:	e5861014 	str	r1, [r6, #20]
    cab4:	e59d000c 	ldr	r0, [sp, #12]
    cab8:	e3500000 	cmp	r0, #0
    cabc:	da000008 	ble	cae4 <rt_mq_recv+0x138>
    cac0:	ebfff38f 	bl	9904 <rt_tick_get>
    cac4:	e2847048 	add	r7, r4, #72	; 0x48
    cac8:	e3a01000 	mov	r1, #0
    cacc:	e28d200c 	add	r2, sp, #12
    cad0:	e1a08000 	mov	r8, r0
    cad4:	e1a00007 	mov	r0, r7
    cad8:	eb000efa 	bl	106c8 <rt_timer_control>
    cadc:	e1a00007 	mov	r0, r7
    cae0:	eb000e72 	bl	104b0 <rt_timer_start>
    cae4:	e1a0000a 	mov	r0, sl
    cae8:	ebfff044 	bl	8c00 <rt_hw_interrupt_enable>
    caec:	eb000acd 	bl	f628 <rt_schedule>
    caf0:	e594002c 	ldr	r0, [r4, #44]	; 0x2c
    caf4:	e3500000 	cmp	r0, #0
    caf8:	1a00002d 	bne	cbb4 <rt_mq_recv+0x208>
    cafc:	ebfff03b 	bl	8bf0 <rt_hw_interrupt_disable>
    cb00:	e59d700c 	ldr	r7, [sp, #12]
    cb04:	e3570000 	cmp	r7, #0
    cb08:	e1a0a000 	mov	sl, r0
    cb0c:	da000005 	ble	cb28 <rt_mq_recv+0x17c>
    cb10:	ebfff37b 	bl	9904 <rt_tick_get>
    cb14:	e59dc00c 	ldr	ip, [sp, #12]
    cb18:	e0688000 	rsb	r8, r8, r0
    cb1c:	e05c2008 	subs	r2, ip, r8
    cb20:	43a02000 	movmi	r2, #0
    cb24:	e58d200c 	str	r2, [sp, #12]
    cb28:	e1d672b0 	ldrh	r7, [r6, #32]
    cb2c:	e3570000 	cmp	r7, #0
    cb30:	0affffc2 	beq	ca40 <rt_mq_recv+0x94>
    cb34:	e5964024 	ldr	r4, [r6, #36]	; 0x24
    cb38:	e2477001 	sub	r7, r7, #1
    cb3c:	e5960028 	ldr	r0, [r6, #40]	; 0x28
    cb40:	e594e000 	ldr	lr, [r4]
    cb44:	e1500004 	cmp	r0, r4
    cb48:	e1c672b0 	strh	r7, [r6, #32]
    cb4c:	e1a0000a 	mov	r0, sl
    cb50:	e586e024 	str	lr, [r6, #36]	; 0x24
    cb54:	03a0e000 	moveq	lr, #0
    cb58:	0586e028 	streq	lr, [r6, #40]	; 0x28
    cb5c:	ebfff027 	bl	8c00 <rt_hw_interrupt_enable>
    cb60:	e59dc004 	ldr	ip, [sp, #4]
    cb64:	e1d621bc 	ldrh	r2, [r6, #28]
    cb68:	e2841004 	add	r1, r4, #4
    cb6c:	e59d0008 	ldr	r0, [sp, #8]
    cb70:	e15c0002 	cmp	ip, r2
    cb74:	31a0200c 	movcc	r2, ip
    cb78:	eb000244 	bl	d490 <rt_memcpy>
    cb7c:	ebfff01b 	bl	8bf0 <rt_hw_interrupt_disable>
    cb80:	e596302c 	ldr	r3, [r6, #44]	; 0x2c
    cb84:	e5843000 	str	r3, [r4]
    cb88:	e586402c 	str	r4, [r6, #44]	; 0x2c
    cb8c:	ebfff01b 	bl	8c00 <rt_hw_interrupt_enable>
    cb90:	e30f1dec 	movw	r1, #65004	; 0xfdec
    cb94:	e3401002 	movt	r1, #2
    cb98:	e5913000 	ldr	r3, [r1]
    cb9c:	e3530000 	cmp	r3, #0
    cba0:	01a00003 	moveq	r0, r3
    cba4:	0a000002 	beq	cbb4 <rt_mq_recv+0x208>
    cba8:	e1a00006 	mov	r0, r6
    cbac:	e12fff33 	blx	r3
    cbb0:	e3a00000 	mov	r0, #0
    cbb4:	e28dd01c 	add	sp, sp, #28
    cbb8:	e8bd8ff0 	pop	{r4, r5, r6, r7, r8, r9, sl, fp, pc}
    cbbc:	e3570001 	cmp	r7, #1
    cbc0:	1affffbb 	bne	cab4 <rt_mq_recv+0x108>
    cbc4:	e5963010 	ldr	r3, [r6, #16]
    cbc8:	e1550003 	cmp	r5, r3
    cbcc:	0affffb2 	beq	ca9c <rt_mq_recv+0xf0>
    cbd0:	e5d41031 	ldrb	r1, [r4, #49]	; 0x31
    cbd4:	e5d30021 	ldrb	r0, [r3, #33]	; 0x21
    cbd8:	e1500001 	cmp	r0, r1
    cbdc:	8a000005 	bhi	cbf8 <rt_mq_recv+0x24c>
    cbe0:	e5933000 	ldr	r3, [r3]
    cbe4:	e1550003 	cmp	r5, r3
    cbe8:	0affffab 	beq	ca9c <rt_mq_recv+0xf0>
    cbec:	e5d32021 	ldrb	r2, [r3, #33]	; 0x21
    cbf0:	e1520001 	cmp	r2, r1
    cbf4:	9afffff9 	bls	cbe0 <rt_mq_recv+0x234>
    cbf8:	e593e004 	ldr	lr, [r3, #4]
    cbfc:	e59dc000 	ldr	ip, [sp]
    cc00:	e584e014 	str	lr, [r4, #20]
    cc04:	e58ec000 	str	ip, [lr]
    cc08:	e583c004 	str	ip, [r3, #4]
    cc0c:	e5843010 	str	r3, [r4, #16]
    cc10:	eaffffa7 	b	cab4 <rt_mq_recv+0x108>
    cc14:	e59f1148 	ldr	r1, [pc, #328]	; cd64 <rt_mq_recv+0x3b8>
    cc18:	e30c0a6c 	movw	r0, #51820	; 0xca6c
    cc1c:	e3400002 	movt	r0, #2
    cc20:	eb000616 	bl	e480 <rt_kprintf>
    cc24:	e30c082c 	movw	r0, #51244	; 0xc82c
    cc28:	e30c1b44 	movw	r1, #52036	; 0xcb44
    cc2c:	e3400002 	movt	r0, #2
    cc30:	e3401002 	movt	r1, #2
    cc34:	e59f2128 	ldr	r2, [pc, #296]	; cd64 <rt_mq_recv+0x3b8>
    cc38:	e3003851 	movw	r3, #2129	; 0x851
    cc3c:	e5cdb017 	strb	fp, [sp, #23]
    cc40:	eb00060e 	bl	e480 <rt_kprintf>
    cc44:	e5dde017 	ldrb	lr, [sp, #23]
    cc48:	e35e0000 	cmp	lr, #0
    cc4c:	0afffffc 	beq	cc44 <rt_mq_recv+0x298>
    cc50:	e1a00007 	mov	r0, r7
    cc54:	ebffefe9 	bl	8c00 <rt_hw_interrupt_enable>
    cc58:	e1a00009 	mov	r0, r9
    cc5c:	ebffefe7 	bl	8c00 <rt_hw_interrupt_enable>
    cc60:	e59d300c 	ldr	r3, [sp, #12]
    cc64:	e584b02c 	str	fp, [r4, #44]	; 0x2c
    cc68:	e3530000 	cmp	r3, #0
    cc6c:	1affff85 	bne	ca88 <rt_mq_recv+0xdc>
    cc70:	e1a0000a 	mov	r0, sl
    cc74:	ebffefe1 	bl	8c00 <rt_hw_interrupt_enable>
    cc78:	e3e01001 	mvn	r1, #1
    cc7c:	e1a00001 	mov	r0, r1
    cc80:	e584102c 	str	r1, [r4, #44]	; 0x2c
    cc84:	eaffffca 	b	cbb4 <rt_mq_recv+0x208>
    cc88:	e59f10d4 	ldr	r1, [pc, #212]	; cd64 <rt_mq_recv+0x3b8>
    cc8c:	e30c0aa8 	movw	r0, #51880	; 0xcaa8
    cc90:	e3400002 	movt	r0, #2
    cc94:	eb0005f9 	bl	e480 <rt_kprintf>
    cc98:	e30c082c 	movw	r0, #51244	; 0xc82c
    cc9c:	e30c1b44 	movw	r1, #52036	; 0xcb44
    cca0:	e3400002 	movt	r0, #2
    cca4:	e3401002 	movt	r1, #2
    cca8:	e59f20b4 	ldr	r2, [pc, #180]	; cd64 <rt_mq_recv+0x3b8>
    ccac:	e3003851 	movw	r3, #2129	; 0x851
    ccb0:	e5cd7017 	strb	r7, [sp, #23]
    ccb4:	eb0005f1 	bl	e480 <rt_kprintf>
    ccb8:	e5dd7017 	ldrb	r7, [sp, #23]
    ccbc:	e3570000 	cmp	r7, #0
    ccc0:	0afffffc 	beq	ccb8 <rt_mq_recv+0x30c>
    ccc4:	eaffff62 	b	ca54 <rt_mq_recv+0xa8>
    ccc8:	e30c082c 	movw	r0, #51244	; 0xc82c
    cccc:	e30c1b3c 	movw	r1, #52028	; 0xcb3c
    ccd0:	e3400002 	movt	r0, #2
    ccd4:	e3401002 	movt	r1, #2
    ccd8:	e59f2084 	ldr	r2, [pc, #132]	; cd64 <rt_mq_recv+0x3b8>
    ccdc:	e300383b 	movw	r3, #2107	; 0x83b
    cce0:	e5cdc017 	strb	ip, [sp, #23]
    cce4:	eb0005e5 	bl	e480 <rt_kprintf>
    cce8:	e5dd1017 	ldrb	r1, [sp, #23]
    ccec:	e3510000 	cmp	r1, #0
    ccf0:	0afffffc 	beq	cce8 <rt_mq_recv+0x33c>
    ccf4:	eaffff39 	b	c9e0 <rt_mq_recv+0x34>
    ccf8:	e30c082c 	movw	r0, #51244	; 0xc82c
    ccfc:	e30c1b28 	movw	r1, #52008	; 0xcb28
    cd00:	e3400002 	movt	r0, #2
    cd04:	e3401002 	movt	r1, #2
    cd08:	e59f2054 	ldr	r2, [pc, #84]	; cd64 <rt_mq_recv+0x3b8>
    cd0c:	e300383a 	movw	r3, #2106	; 0x83a
    cd10:	e5cdc017 	strb	ip, [sp, #23]
    cd14:	eb0005d9 	bl	e480 <rt_kprintf>
    cd18:	e5dd0017 	ldrb	r0, [sp, #23]
    cd1c:	e3500000 	cmp	r0, #0
    cd20:	0afffffc 	beq	cd18 <rt_mq_recv+0x36c>
    cd24:	eaffff2a 	b	c9d4 <rt_mq_recv+0x28>
    cd28:	e30c082c 	movw	r0, #51244	; 0xc82c
    cd2c:	e30c1b18 	movw	r1, #51992	; 0xcb18
    cd30:	e3400002 	movt	r0, #2
    cd34:	e3401002 	movt	r1, #2
    cd38:	e59f2024 	ldr	r2, [pc, #36]	; cd64 <rt_mq_recv+0x3b8>
    cd3c:	e3003839 	movw	r3, #2105	; 0x839
    cd40:	e5cd6017 	strb	r6, [sp, #23]
    cd44:	eb0005cd 	bl	e480 <rt_kprintf>
    cd48:	e5dd3017 	ldrb	r3, [sp, #23]
    cd4c:	e3530000 	cmp	r3, #0
    cd50:	0afffffc 	beq	cd48 <rt_mq_recv+0x39c>
    cd54:	eaffff1b 	b	c9c8 <rt_mq_recv+0x1c>
    cd58:	ebffefa8 	bl	8c00 <rt_hw_interrupt_enable>
    cd5c:	e3e00001 	mvn	r0, #1
    cd60:	eaffff93 	b	cbb4 <rt_mq_recv+0x208>
    cd64:	0002b738 	andeq	fp, r2, r8, lsr r7

0000cd68 <rt_mq_control>:
    cd68:	e92d41f0 	push	{r4, r5, r6, r7, r8, lr}
    cd6c:	e2504000 	subs	r4, r0, #0
    cd70:	e24dd008 	sub	sp, sp, #8
    cd74:	e1a05001 	mov	r5, r1
    cd78:	0a00002d 	beq	ce34 <rt_mq_control+0xcc>
    cd7c:	e3550001 	cmp	r5, #1
    cd80:	13e00000 	mvnne	r0, #0
    cd84:	1a000028 	bne	ce2c <rt_mq_control+0xc4>
    cd88:	ebffef98 	bl	8bf0 <rt_hw_interrupt_disable>
    cd8c:	e2845010 	add	r5, r4, #16
    cd90:	e1a08000 	mov	r8, r0
    cd94:	e5940010 	ldr	r0, [r4, #16]
    cd98:	e1550000 	cmp	r5, r0
    cd9c:	0a00000b 	beq	cdd0 <rt_mq_control+0x68>
    cda0:	e3e07000 	mvn	r7, #0
    cda4:	ebffef91 	bl	8bf0 <rt_hw_interrupt_disable>
    cda8:	e5952000 	ldr	r2, [r5]
    cdac:	e582701c 	str	r7, [r2, #28]
    cdb0:	e1a06000 	mov	r6, r0
    cdb4:	e2420010 	sub	r0, r2, #16
    cdb8:	eb000c83 	bl	ffcc <rt_thread_resume>
    cdbc:	e1a00006 	mov	r0, r6
    cdc0:	ebffef8e 	bl	8c00 <rt_hw_interrupt_enable>
    cdc4:	e5951000 	ldr	r1, [r5]
    cdc8:	e1550001 	cmp	r5, r1
    cdcc:	1afffff4 	bne	cda4 <rt_mq_control+0x3c>
    cdd0:	e5943024 	ldr	r3, [r4, #36]	; 0x24
    cdd4:	e3530000 	cmp	r3, #0
    cdd8:	0a00000d 	beq	ce14 <rt_mq_control+0xac>
    cddc:	e594102c 	ldr	r1, [r4, #44]	; 0x2c
    cde0:	e3a0c000 	mov	ip, #0
    cde4:	ea000000 	b	cdec <rt_mq_control+0x84>
    cde8:	e1a03002 	mov	r3, r2
    cdec:	e5945028 	ldr	r5, [r4, #40]	; 0x28
    cdf0:	e5932000 	ldr	r2, [r3]
    cdf4:	e1530005 	cmp	r3, r5
    cdf8:	0584c028 	streq	ip, [r4, #40]	; 0x28
    cdfc:	e3520000 	cmp	r2, #0
    ce00:	e5831000 	str	r1, [r3]
    ce04:	e1a01003 	mov	r1, r3
    ce08:	1afffff6 	bne	cde8 <rt_mq_control+0x80>
    ce0c:	e5842024 	str	r2, [r4, #36]	; 0x24
    ce10:	e584302c 	str	r3, [r4, #44]	; 0x2c
    ce14:	e1a00008 	mov	r0, r8
    ce18:	e3a05000 	mov	r5, #0
    ce1c:	e1c452b0 	strh	r5, [r4, #32]
    ce20:	ebffef76 	bl	8c00 <rt_hw_interrupt_enable>
    ce24:	eb0009ff 	bl	f628 <rt_schedule>
    ce28:	e1a00005 	mov	r0, r5
    ce2c:	e28dd008 	add	sp, sp, #8
    ce30:	e8bd81f0 	pop	{r4, r5, r6, r7, r8, pc}
    ce34:	e30c082c 	movw	r0, #51244	; 0xc82c
    ce38:	e30c1b18 	movw	r1, #51992	; 0xcb18
    ce3c:	e3400002 	movt	r0, #2
    ce40:	e3401002 	movt	r1, #2
    ce44:	e59f2018 	ldr	r2, [pc, #24]	; ce64 <rt_mq_control+0xfc>
    ce48:	e30038bf 	movw	r3, #2239	; 0x8bf
    ce4c:	e5cd4007 	strb	r4, [sp, #7]
    ce50:	eb00058a 	bl	e480 <rt_kprintf>
    ce54:	e5dd3007 	ldrb	r3, [sp, #7]
    ce58:	e3530000 	cmp	r3, #0
    ce5c:	0afffffc 	beq	ce54 <rt_mq_control+0xec>
    ce60:	eaffffc5 	b	cd7c <rt_mq_control+0x14>
    ce64:	0002b744 	andeq	fp, r2, r4, asr #14

0000ce68 <rt_interrupt_enter>:
    ce68:	e92d4008 	push	{r3, lr}
    ce6c:	ebffef5f 	bl	8bf0 <rt_hw_interrupt_disable>
    ce70:	e30f3de4 	movw	r3, #64996	; 0xfde4
    ce74:	e3403002 	movt	r3, #2
    ce78:	e5d31000 	ldrb	r1, [r3]
    ce7c:	e2812001 	add	r2, r1, #1
    ce80:	e5c32000 	strb	r2, [r3]
    ce84:	e8bd4008 	pop	{r3, lr}
    ce88:	eaffef5c 	b	8c00 <rt_hw_interrupt_enable>

0000ce8c <rt_interrupt_leave>:
    ce8c:	e92d4008 	push	{r3, lr}
    ce90:	ebffef56 	bl	8bf0 <rt_hw_interrupt_disable>
    ce94:	e30f3de4 	movw	r3, #64996	; 0xfde4
    ce98:	e3403002 	movt	r3, #2
    ce9c:	e5d31000 	ldrb	r1, [r3]
    cea0:	e2412001 	sub	r2, r1, #1
    cea4:	e5c32000 	strb	r2, [r3]
    cea8:	e8bd4008 	pop	{r3, lr}
    ceac:	eaffef53 	b	8c00 <rt_hw_interrupt_enable>

0000ceb0 <rt_interrupt_get_nest>:
    ceb0:	e30f3de4 	movw	r3, #64996	; 0xfde4
    ceb4:	e3403002 	movt	r3, #2
    ceb8:	e5d30000 	ldrb	r0, [r3]
    cebc:	e12fff1e 	bx	lr

0000cec0 <print_number>:
    cec0:	e92d0ff0 	push	{r4, r5, r6, r7, r8, r9, sl, fp}
    cec4:	e24dd010 	sub	sp, sp, #16
    cec8:	e59f4384 	ldr	r4, [pc, #900]	; d254 <print_number+0x394>
    cecc:	e59dc038 	ldr	ip, [sp, #56]	; 0x38
    ced0:	e2446014 	sub	r6, r4, #20
    ced4:	e31c0040 	tst	ip, #64	; 0x40
    ced8:	01a06004 	moveq	r6, r4
    cedc:	e21cb010 	ands	fp, ip, #16
    cee0:	13ccc001 	bicne	ip, ip, #1
    cee4:	120cb010 	andne	fp, ip, #16
    cee8:	e31c0001 	tst	ip, #1
    ceec:	03a08020 	moveq	r8, #32
    cef0:	13a08030 	movne	r8, #48	; 0x30
    cef4:	e21c9002 	ands	r9, ip, #2
    cef8:	0a000006 	beq	cf18 <print_number+0x58>
    cefc:	e3520000 	cmp	r2, #0
    cf00:	b2622000 	rsblt	r2, r2, #0
    cf04:	b3a0902d 	movlt	r9, #45	; 0x2d
    cf08:	ba000007 	blt	cf2c <print_number+0x6c>
    cf0c:	e31c0004 	tst	ip, #4
    cf10:	13a0902b 	movne	r9, #43	; 0x2b
    cf14:	0a0000c6 	beq	d234 <print_number+0x374>
    cf18:	e3520000 	cmp	r2, #0
    cf1c:	03a03030 	moveq	r3, #48	; 0x30
    cf20:	03a04001 	moveq	r4, #1
    cf24:	05cd3000 	strbeq	r3, [sp]
    cf28:	0a000010 	beq	cf70 <print_number+0xb0>
    cf2c:	e30caccd 	movw	sl, #52429	; 0xcccd
    cf30:	e34caccc 	movt	sl, #52428	; 0xcccc
    cf34:	e3a04000 	mov	r4, #0
    cf38:	e353000a 	cmp	r3, #10
    cf3c:	e202500f 	and	r5, r2, #15
    cf40:	11a02222 	lsrne	r2, r2, #4
    cf44:	0087529a 	umulleq	r5, r7, sl, r2
    cf48:	01a071a7 	lsreq	r7, r7, #3
    cf4c:	00875107 	addeq	r5, r7, r7, lsl #2
    cf50:	00425085 	subeq	r5, r2, r5, lsl #1
    cf54:	01a02007 	moveq	r2, r7
    cf58:	e3520000 	cmp	r2, #0
    cf5c:	e7d65005 	ldrb	r5, [r6, r5]
    cf60:	e7cd5004 	strb	r5, [sp, r4]
    cf64:	e2844001 	add	r4, r4, #1
    cf68:	1afffff2 	bne	cf38 <print_number+0x78>
    cf6c:	e2442001 	sub	r2, r4, #1
    cf70:	e59d3034 	ldr	r3, [sp, #52]	; 0x34
    cf74:	e1540003 	cmp	r4, r3
    cf78:	a1a03004 	movge	r3, r4
    cf7c:	b1a03003 	movlt	r3, r3
    cf80:	e31c0011 	tst	ip, #17
    cf84:	e59dc030 	ldr	ip, [sp, #48]	; 0x30
    cf88:	e063500c 	rsb	r5, r3, ip
    cf8c:	1a000021 	bne	d018 <print_number+0x158>
    cf90:	e3590000 	cmp	r9, #0
    cf94:	13550000 	cmpne	r5, #0
    cf98:	c2455001 	subgt	r5, r5, #1
    cf9c:	e3550000 	cmp	r5, #0
    cfa0:	e245c001 	sub	ip, r5, #1
    cfa4:	d1a0500c 	movle	r5, ip
    cfa8:	da00001a 	ble	d018 <print_number+0x158>
    cfac:	e0805005 	add	r5, r0, r5
    cfb0:	e1510000 	cmp	r1, r0
    cfb4:	e1e06000 	mvn	r6, r0
    cfb8:	e085c006 	add	ip, r5, r6
    cfbc:	e20cc001 	and	ip, ip, #1
    cfc0:	e3a06020 	mov	r6, #32
    cfc4:	25c06000 	strbcs	r6, [r0]
    cfc8:	e2800001 	add	r0, r0, #1
    cfcc:	e1500005 	cmp	r0, r5
    cfd0:	0a00000e 	beq	d010 <print_number+0x150>
    cfd4:	e35c0000 	cmp	ip, #0
    cfd8:	0a000004 	beq	cff0 <print_number+0x130>
    cfdc:	e1510000 	cmp	r1, r0
    cfe0:	25c06000 	strbcs	r6, [r0]
    cfe4:	e2800001 	add	r0, r0, #1
    cfe8:	e1500005 	cmp	r0, r5
    cfec:	0a000007 	beq	d010 <print_number+0x150>
    cff0:	e280c001 	add	ip, r0, #1
    cff4:	e1510000 	cmp	r1, r0
    cff8:	25c06000 	strbcs	r6, [r0]
    cffc:	e151000c 	cmp	r1, ip
    d000:	25c06001 	strbcs	r6, [r0, #1]
    d004:	e28c0001 	add	r0, ip, #1
    d008:	e1500005 	cmp	r0, r5
    d00c:	1afffff7 	bne	cff0 <print_number+0x130>
    d010:	e1a00005 	mov	r0, r5
    d014:	e3e05000 	mvn	r5, #0
    d018:	e3590000 	cmp	r9, #0
    d01c:	0a000003 	beq	d030 <print_number+0x170>
    d020:	e1500001 	cmp	r0, r1
    d024:	95c09000 	strbls	r9, [r0]
    d028:	92455001 	subls	r5, r5, #1
    d02c:	e2800001 	add	r0, r0, #1
    d030:	e35b0000 	cmp	fp, #0
    d034:	1a00001d 	bne	d0b0 <print_number+0x1f0>
    d038:	e3550000 	cmp	r5, #0
    d03c:	e245c001 	sub	ip, r5, #1
    d040:	d1a0500c 	movle	r5, ip
    d044:	da000019 	ble	d0b0 <print_number+0x1f0>
    d048:	e0805005 	add	r5, r0, r5
    d04c:	e1510000 	cmp	r1, r0
    d050:	e1e0c000 	mvn	ip, r0
    d054:	e085c00c 	add	ip, r5, ip
    d058:	e20cc001 	and	ip, ip, #1
    d05c:	25c08000 	strbcs	r8, [r0]
    d060:	e2800001 	add	r0, r0, #1
    d064:	e1500005 	cmp	r0, r5
    d068:	0a00000e 	beq	d0a8 <print_number+0x1e8>
    d06c:	e35c0000 	cmp	ip, #0
    d070:	0a000004 	beq	d088 <print_number+0x1c8>
    d074:	e1510000 	cmp	r1, r0
    d078:	25c08000 	strbcs	r8, [r0]
    d07c:	e2800001 	add	r0, r0, #1
    d080:	e1500005 	cmp	r0, r5
    d084:	0a000007 	beq	d0a8 <print_number+0x1e8>
    d088:	e280c001 	add	ip, r0, #1
    d08c:	e1510000 	cmp	r1, r0
    d090:	25c08000 	strbcs	r8, [r0]
    d094:	e151000c 	cmp	r1, ip
    d098:	25c08001 	strbcs	r8, [r0, #1]
    d09c:	e28c0001 	add	r0, ip, #1
    d0a0:	e1500005 	cmp	r0, r5
    d0a4:	1afffff7 	bne	d088 <print_number+0x1c8>
    d0a8:	e1a00005 	mov	r0, r5
    d0ac:	e3e05000 	mvn	r5, #0
    d0b0:	e1540003 	cmp	r4, r3
    d0b4:	aa00001a 	bge	d124 <print_number+0x264>
    d0b8:	e0644003 	rsb	r4, r4, r3
    d0bc:	e1510000 	cmp	r1, r0
    d0c0:	e0804004 	add	r4, r0, r4
    d0c4:	e1e0c000 	mvn	ip, r0
    d0c8:	e084300c 	add	r3, r4, ip
    d0cc:	e3a0c030 	mov	ip, #48	; 0x30
    d0d0:	e2033001 	and	r3, r3, #1
    d0d4:	2a000054 	bcs	d22c <print_number+0x36c>
    d0d8:	e2800001 	add	r0, r0, #1
    d0dc:	e1500004 	cmp	r0, r4
    d0e0:	0a00000e 	beq	d120 <print_number+0x260>
    d0e4:	e3530000 	cmp	r3, #0
    d0e8:	0a000004 	beq	d100 <print_number+0x240>
    d0ec:	e1510000 	cmp	r1, r0
    d0f0:	25c0c000 	strbcs	ip, [r0]
    d0f4:	e2800001 	add	r0, r0, #1
    d0f8:	e1500004 	cmp	r0, r4
    d0fc:	0a000007 	beq	d120 <print_number+0x260>
    d100:	e2803001 	add	r3, r0, #1
    d104:	e1510000 	cmp	r1, r0
    d108:	25c0c000 	strbcs	ip, [r0]
    d10c:	e1510003 	cmp	r1, r3
    d110:	25c0c001 	strbcs	ip, [r0, #1]
    d114:	e2830001 	add	r0, r3, #1
    d118:	e1500004 	cmp	r0, r4
    d11c:	1afffff7 	bne	d100 <print_number+0x240>
    d120:	e1a00004 	mov	r0, r4
    d124:	e1510000 	cmp	r1, r0
    d128:	e202c001 	and	ip, r2, #1
    d12c:	27dd4002 	ldrbcs	r4, [sp, r2]
    d130:	25c04000 	strbcs	r4, [r0]
    d134:	e3520000 	cmp	r2, #0
    d138:	e2803001 	add	r3, r0, #1
    d13c:	e2424001 	sub	r4, r2, #1
    d140:	da000015 	ble	d19c <print_number+0x2dc>
    d144:	e35c0000 	cmp	ip, #0
    d148:	0a000007 	beq	d16c <print_number+0x2ac>
    d14c:	e1510003 	cmp	r1, r3
    d150:	27ddc004 	ldrbcs	ip, [sp, r4]
    d154:	e2444001 	sub	r4, r4, #1
    d158:	25c3c000 	strbcs	ip, [r3]
    d15c:	e284c001 	add	ip, r4, #1
    d160:	e35c0000 	cmp	ip, #0
    d164:	e2833001 	add	r3, r3, #1
    d168:	da00000b 	ble	d19c <print_number+0x2dc>
    d16c:	e1510003 	cmp	r1, r3
    d170:	e244c001 	sub	ip, r4, #1
    d174:	e2836001 	add	r6, r3, #1
    d178:	27dd4004 	ldrbcs	r4, [sp, r4]
    d17c:	25c34000 	strbcs	r4, [r3]
    d180:	e1510006 	cmp	r1, r6
    d184:	27dd400c 	ldrbcs	r4, [sp, ip]
    d188:	25c34001 	strbcs	r4, [r3, #1]
    d18c:	e35c0000 	cmp	ip, #0
    d190:	e2863001 	add	r3, r6, #1
    d194:	e24c4001 	sub	r4, ip, #1
    d198:	cafffff3 	bgt	d16c <print_number+0x2ac>
    d19c:	e1c23fc2 	bic	r3, r2, r2, asr #31
    d1a0:	e3550000 	cmp	r5, #0
    d1a4:	e2832001 	add	r2, r3, #1
    d1a8:	e0800002 	add	r0, r0, r2
    d1ac:	da000019 	ble	d218 <print_number+0x358>
    d1b0:	e0805005 	add	r5, r0, r5
    d1b4:	e1500001 	cmp	r0, r1
    d1b8:	e1e02000 	mvn	r2, r0
    d1bc:	e085c002 	add	ip, r5, r2
    d1c0:	e20c3001 	and	r3, ip, #1
    d1c4:	e3a02020 	mov	r2, #32
    d1c8:	9a000015 	bls	d224 <print_number+0x364>
    d1cc:	e2800001 	add	r0, r0, #1
    d1d0:	e1500005 	cmp	r0, r5
    d1d4:	0a00000e 	beq	d214 <print_number+0x354>
    d1d8:	e3530000 	cmp	r3, #0
    d1dc:	0a000004 	beq	d1f4 <print_number+0x334>
    d1e0:	e1500001 	cmp	r0, r1
    d1e4:	95c02000 	strbls	r2, [r0]
    d1e8:	e2800001 	add	r0, r0, #1
    d1ec:	e1500005 	cmp	r0, r5
    d1f0:	0a000007 	beq	d214 <print_number+0x354>
    d1f4:	e2803001 	add	r3, r0, #1
    d1f8:	e1500001 	cmp	r0, r1
    d1fc:	95c02000 	strbls	r2, [r0]
    d200:	e1530001 	cmp	r3, r1
    d204:	95c02001 	strbls	r2, [r0, #1]
    d208:	e2830001 	add	r0, r3, #1
    d20c:	e1500005 	cmp	r0, r5
    d210:	1afffff7 	bne	d1f4 <print_number+0x334>
    d214:	e1a00005 	mov	r0, r5
    d218:	e28dd010 	add	sp, sp, #16
    d21c:	e8bd0ff0 	pop	{r4, r5, r6, r7, r8, r9, sl, fp}
    d220:	e12fff1e 	bx	lr
    d224:	e5c02000 	strb	r2, [r0]
    d228:	eaffffe7 	b	d1cc <print_number+0x30c>
    d22c:	e5c0c000 	strb	ip, [r0]
    d230:	eaffffa8 	b	d0d8 <print_number+0x218>
    d234:	e21c9008 	ands	r9, ip, #8
    d238:	13a09020 	movne	r9, #32
    d23c:	e3520000 	cmp	r2, #0
    d240:	03a03030 	moveq	r3, #48	; 0x30
    d244:	03a04001 	moveq	r4, #1
    d248:	05cd3000 	strbeq	r3, [sp]
    d24c:	0affff47 	beq	cf70 <print_number+0xb0>
    d250:	eaffff35 	b	cf2c <print_number+0x6c>
    d254:	0002b768 	andeq	fp, r2, r8, ror #14

0000d258 <rt_get_errno>:
    d258:	e92d4008 	push	{r3, lr}
    d25c:	ebffff13 	bl	ceb0 <rt_interrupt_get_nest>
    d260:	e3500000 	cmp	r0, #0
    d264:	0a000003 	beq	d278 <rt_get_errno+0x20>
    d268:	e30e33e4 	movw	r3, #58340	; 0xe3e4
    d26c:	e3403002 	movt	r3, #2
    d270:	e5930000 	ldr	r0, [r3]
    d274:	e8bd8008 	pop	{r3, pc}
    d278:	eb000a76 	bl	fc58 <rt_thread_self>
    d27c:	e3500000 	cmp	r0, #0
    d280:	0afffff8 	beq	d268 <rt_get_errno+0x10>
    d284:	e590002c 	ldr	r0, [r0, #44]	; 0x2c
    d288:	e8bd8008 	pop	{r3, pc}

0000d28c <rt_set_errno>:
    d28c:	e92d4010 	push	{r4, lr}
    d290:	e1a04000 	mov	r4, r0
    d294:	ebffff05 	bl	ceb0 <rt_interrupt_get_nest>
    d298:	e3500000 	cmp	r0, #0
    d29c:	0a000003 	beq	d2b0 <rt_set_errno+0x24>
    d2a0:	e30e33e4 	movw	r3, #58340	; 0xe3e4
    d2a4:	e3403002 	movt	r3, #2
    d2a8:	e5834000 	str	r4, [r3]
    d2ac:	e8bd8010 	pop	{r4, pc}
    d2b0:	eb000a68 	bl	fc58 <rt_thread_self>
    d2b4:	e3500000 	cmp	r0, #0
    d2b8:	1580402c 	strne	r4, [r0, #44]	; 0x2c
    d2bc:	18bd8010 	popne	{r4, pc}
    d2c0:	eafffff6 	b	d2a0 <rt_set_errno+0x14>

0000d2c4 <_rt_errno>:
    d2c4:	e92d4008 	push	{r3, lr}
    d2c8:	ebfffef8 	bl	ceb0 <rt_interrupt_get_nest>
    d2cc:	e3500000 	cmp	r0, #0
    d2d0:	130e03e4 	movwne	r0, #58340	; 0xe3e4
    d2d4:	13400002 	movtne	r0, #2
    d2d8:	18bd8008 	popne	{r3, pc}
    d2dc:	eb000a5d 	bl	fc58 <rt_thread_self>
    d2e0:	e3500000 	cmp	r0, #0
    d2e4:	1280002c 	addne	r0, r0, #44	; 0x2c
    d2e8:	030e03e4 	movweq	r0, #58340	; 0xe3e4
    d2ec:	03400002 	movteq	r0, #2
    d2f0:	e8bd8008 	pop	{r3, pc}

0000d2f4 <rt_memset>:
    d2f4:	e3520003 	cmp	r2, #3
    d2f8:	e6ef1071 	uxtb	r1, r1
    d2fc:	e92d00f0 	push	{r4, r5, r6, r7}
    d300:	91a0c000 	movls	ip, r0
    d304:	9a000048 	bls	d42c <rt_memset+0x138>
    d308:	e3100003 	tst	r0, #3
    d30c:	11a0c000 	movne	ip, r0
    d310:	1a000047 	bne	d434 <rt_memset+0x140>
    d314:	e1813401 	orr	r3, r1, r1, lsl #8
    d318:	e352000f 	cmp	r2, #15
    d31c:	e1833803 	orr	r3, r3, r3, lsl #16
    d320:	9a000058 	bls	d488 <rt_memset+0x194>
    d324:	e2426010 	sub	r6, r2, #16
    d328:	e2805010 	add	r5, r0, #16
    d32c:	e5803000 	str	r3, [r0]
    d330:	e1a06226 	lsr	r6, r6, #4
    d334:	e1a0c005 	mov	ip, r5
    d338:	e5803004 	str	r3, [r0, #4]
    d33c:	e0855206 	add	r5, r5, r6, lsl #4
    d340:	e5803008 	str	r3, [r0, #8]
    d344:	e0604005 	rsb	r4, r0, r5
    d348:	e155000c 	cmp	r5, ip
    d34c:	e2444010 	sub	r4, r4, #16
    d350:	e580300c 	str	r3, [r0, #12]
    d354:	e7e04254 	ubfx	r4, r4, #4, #1
    d358:	0a000014 	beq	d3b0 <rt_memset+0xbc>
    d35c:	e3540000 	cmp	r4, #0
    d360:	0a000006 	beq	d380 <rt_memset+0x8c>
    d364:	e58c3000 	str	r3, [ip]
    d368:	e58c3004 	str	r3, [ip, #4]
    d36c:	e58c3008 	str	r3, [ip, #8]
    d370:	e58c300c 	str	r3, [ip, #12]
    d374:	e28cc010 	add	ip, ip, #16
    d378:	e155000c 	cmp	r5, ip
    d37c:	0a00000b 	beq	d3b0 <rt_memset+0xbc>
    d380:	e28c4010 	add	r4, ip, #16
    d384:	e58c3000 	str	r3, [ip]
    d388:	e58c3004 	str	r3, [ip, #4]
    d38c:	e58c3008 	str	r3, [ip, #8]
    d390:	e58c300c 	str	r3, [ip, #12]
    d394:	e58c3010 	str	r3, [ip, #16]
    d398:	e28cc020 	add	ip, ip, #32
    d39c:	e155000c 	cmp	r5, ip
    d3a0:	e5843004 	str	r3, [r4, #4]
    d3a4:	e5843008 	str	r3, [r4, #8]
    d3a8:	e584300c 	str	r3, [r4, #12]
    d3ac:	1afffff3 	bne	d380 <rt_memset+0x8c>
    d3b0:	e2866001 	add	r6, r6, #1
    d3b4:	e202200f 	and	r2, r2, #15
    d3b8:	e3520003 	cmp	r2, #3
    d3bc:	e0806206 	add	r6, r0, r6, lsl #4
    d3c0:	91a0c006 	movls	ip, r6
    d3c4:	9a000018 	bls	d42c <rt_memset+0x138>
    d3c8:	e2427004 	sub	r7, r2, #4
    d3cc:	e2865004 	add	r5, r6, #4
    d3d0:	e5863000 	str	r3, [r6]
    d3d4:	e1a07127 	lsr	r7, r7, #2
    d3d8:	e1a0c005 	mov	ip, r5
    d3dc:	e0855107 	add	r5, r5, r7, lsl #2
    d3e0:	e0664005 	rsb	r4, r6, r5
    d3e4:	e15c0005 	cmp	ip, r5
    d3e8:	e2444004 	sub	r4, r4, #4
    d3ec:	e7e04154 	ubfx	r4, r4, #2, #1
    d3f0:	0a00000a 	beq	d420 <rt_memset+0x12c>
    d3f4:	e3540000 	cmp	r4, #0
    d3f8:	0a000002 	beq	d408 <rt_memset+0x114>
    d3fc:	e48c3004 	str	r3, [ip], #4
    d400:	e15c0005 	cmp	ip, r5
    d404:	0a000005 	beq	d420 <rt_memset+0x12c>
    d408:	e1a0400c 	mov	r4, ip
    d40c:	e4843004 	str	r3, [r4], #4
    d410:	e58c3004 	str	r3, [ip, #4]
    d414:	e284c004 	add	ip, r4, #4
    d418:	e15c0005 	cmp	ip, r5
    d41c:	1afffff9 	bne	d408 <rt_memset+0x114>
    d420:	e287c001 	add	ip, r7, #1
    d424:	e2022003 	and	r2, r2, #3
    d428:	e086c10c 	add	ip, r6, ip, lsl #2
    d42c:	e3520000 	cmp	r2, #0
    d430:	0a000012 	beq	d480 <rt_memset+0x18c>
    d434:	e08c2002 	add	r2, ip, r2
    d438:	e1a0300c 	mov	r3, ip
    d43c:	e4c31001 	strb	r1, [r3], #1
    d440:	e1530002 	cmp	r3, r2
    d444:	e1e0c00c 	mvn	ip, ip
    d448:	e082c00c 	add	ip, r2, ip
    d44c:	e20cc001 	and	ip, ip, #1
    d450:	0a00000a 	beq	d480 <rt_memset+0x18c>
    d454:	e35c0000 	cmp	ip, #0
    d458:	0a000002 	beq	d468 <rt_memset+0x174>
    d45c:	e4c31001 	strb	r1, [r3], #1
    d460:	e1530002 	cmp	r3, r2
    d464:	0a000005 	beq	d480 <rt_memset+0x18c>
    d468:	e1a0c003 	mov	ip, r3
    d46c:	e4cc1001 	strb	r1, [ip], #1
    d470:	e5c31001 	strb	r1, [r3, #1]
    d474:	e28c3001 	add	r3, ip, #1
    d478:	e1530002 	cmp	r3, r2
    d47c:	1afffff9 	bne	d468 <rt_memset+0x174>
    d480:	e8bd00f0 	pop	{r4, r5, r6, r7}
    d484:	e12fff1e 	bx	lr
    d488:	e1a06000 	mov	r6, r0
    d48c:	eaffffcd 	b	d3c8 <rt_memset+0xd4>

0000d490 <rt_memcpy>:
    d490:	e352000f 	cmp	r2, #15
    d494:	e92d05f0 	push	{r4, r5, r6, r7, r8, sl}
    d498:	9a000002 	bls	d4a8 <rt_memcpy+0x18>
    d49c:	e1813000 	orr	r3, r1, r0
    d4a0:	e3130003 	tst	r3, #3
    d4a4:	0a00001d 	beq	d520 <rt_memcpy+0x90>
    d4a8:	e1a0c000 	mov	ip, r0
    d4ac:	e3520000 	cmp	r2, #0
    d4b0:	0a000018 	beq	d518 <rt_memcpy+0x88>
    d4b4:	e4d14001 	ldrb	r4, [r1], #1
    d4b8:	e08c2002 	add	r2, ip, r2
    d4bc:	e1a0300c 	mov	r3, ip
    d4c0:	e1e0c00c 	mvn	ip, ip
    d4c4:	e082c00c 	add	ip, r2, ip
    d4c8:	e4c34001 	strb	r4, [r3], #1
    d4cc:	e1530002 	cmp	r3, r2
    d4d0:	e20cc001 	and	ip, ip, #1
    d4d4:	0a00000f 	beq	d518 <rt_memcpy+0x88>
    d4d8:	e35c0000 	cmp	ip, #0
    d4dc:	0a000003 	beq	d4f0 <rt_memcpy+0x60>
    d4e0:	e4d1c001 	ldrb	ip, [r1], #1
    d4e4:	e4c3c001 	strb	ip, [r3], #1
    d4e8:	e1530002 	cmp	r3, r2
    d4ec:	0a000009 	beq	d518 <rt_memcpy+0x88>
    d4f0:	e1a04001 	mov	r4, r1
    d4f4:	e1a0c003 	mov	ip, r3
    d4f8:	e4d45001 	ldrb	r5, [r4], #1
    d4fc:	e4cc5001 	strb	r5, [ip], #1
    d500:	e5d15001 	ldrb	r5, [r1, #1]
    d504:	e2841001 	add	r1, r4, #1
    d508:	e5c35001 	strb	r5, [r3, #1]
    d50c:	e28c3001 	add	r3, ip, #1
    d510:	e1530002 	cmp	r3, r2
    d514:	1afffff5 	bne	d4f0 <rt_memcpy+0x60>
    d518:	e8bd05f0 	pop	{r4, r5, r6, r7, r8, sl}
    d51c:	e12fff1e 	bx	lr
    d520:	e2422010 	sub	r2, r2, #16
    d524:	e5913000 	ldr	r3, [r1]
    d528:	e2807010 	add	r7, r0, #16
    d52c:	e281c010 	add	ip, r1, #16
    d530:	e1a08222 	lsr	r8, r2, #4
    d534:	e5803000 	str	r3, [r0]
    d538:	e1a03007 	mov	r3, r7
    d53c:	e5915004 	ldr	r5, [r1, #4]
    d540:	e0877208 	add	r7, r7, r8, lsl #4
    d544:	e0604007 	rsb	r4, r0, r7
    d548:	e1570003 	cmp	r7, r3
    d54c:	e2444010 	sub	r4, r4, #16
    d550:	e5805004 	str	r5, [r0, #4]
    d554:	e7e05254 	ubfx	r5, r4, #4, #1
    d558:	e5914008 	ldr	r4, [r1, #8]
    d55c:	e5804008 	str	r4, [r0, #8]
    d560:	e591400c 	ldr	r4, [r1, #12]
    d564:	e580400c 	str	r4, [r0, #12]
    d568:	0a000023 	beq	d5fc <rt_memcpy+0x16c>
    d56c:	e3550000 	cmp	r5, #0
    d570:	0a00000b 	beq	d5a4 <rt_memcpy+0x114>
    d574:	e59c4000 	ldr	r4, [ip]
    d578:	e5834000 	str	r4, [r3]
    d57c:	e59c4004 	ldr	r4, [ip, #4]
    d580:	e5834004 	str	r4, [r3, #4]
    d584:	e59c4008 	ldr	r4, [ip, #8]
    d588:	e5834008 	str	r4, [r3, #8]
    d58c:	e59c400c 	ldr	r4, [ip, #12]
    d590:	e28cc010 	add	ip, ip, #16
    d594:	e583400c 	str	r4, [r3, #12]
    d598:	e2833010 	add	r3, r3, #16
    d59c:	e1570003 	cmp	r7, r3
    d5a0:	0a000015 	beq	d5fc <rt_memcpy+0x16c>
    d5a4:	e59c6000 	ldr	r6, [ip]
    d5a8:	e28c5010 	add	r5, ip, #16
    d5ac:	e2834010 	add	r4, r3, #16
    d5b0:	e5836000 	str	r6, [r3]
    d5b4:	e59c6004 	ldr	r6, [ip, #4]
    d5b8:	e5836004 	str	r6, [r3, #4]
    d5bc:	e59c6008 	ldr	r6, [ip, #8]
    d5c0:	e5836008 	str	r6, [r3, #8]
    d5c4:	e59c600c 	ldr	r6, [ip, #12]
    d5c8:	e583600c 	str	r6, [r3, #12]
    d5cc:	e59c6010 	ldr	r6, [ip, #16]
    d5d0:	e28cc020 	add	ip, ip, #32
    d5d4:	e5836010 	str	r6, [r3, #16]
    d5d8:	e2833020 	add	r3, r3, #32
    d5dc:	e5956004 	ldr	r6, [r5, #4]
    d5e0:	e1570003 	cmp	r7, r3
    d5e4:	e5846004 	str	r6, [r4, #4]
    d5e8:	e5956008 	ldr	r6, [r5, #8]
    d5ec:	e5846008 	str	r6, [r4, #8]
    d5f0:	e595500c 	ldr	r5, [r5, #12]
    d5f4:	e584500c 	str	r5, [r4, #12]
    d5f8:	1affffe9 	bne	d5a4 <rt_memcpy+0x114>
    d5fc:	e2883001 	add	r3, r8, #1
    d600:	e0422208 	sub	r2, r2, r8, lsl #4
    d604:	e3520003 	cmp	r2, #3
    d608:	e1a03203 	lsl	r3, r3, #4
    d60c:	e0808003 	add	r8, r0, r3
    d610:	e0811003 	add	r1, r1, r3
    d614:	91a0c008 	movls	ip, r8
    d618:	9affffa3 	bls	d4ac <rt_memcpy+0x1c>
    d61c:	e2422004 	sub	r2, r2, #4
    d620:	e2887004 	add	r7, r8, #4
    d624:	e1a0c001 	mov	ip, r1
    d628:	e1a0a122 	lsr	sl, r2, #2
    d62c:	e1a03007 	mov	r3, r7
    d630:	e49c5004 	ldr	r5, [ip], #4
    d634:	e087710a 	add	r7, r7, sl, lsl #2
    d638:	e0684007 	rsb	r4, r8, r7
    d63c:	e1530007 	cmp	r3, r7
    d640:	e2444004 	sub	r4, r4, #4
    d644:	e5885000 	str	r5, [r8]
    d648:	e7e04154 	ubfx	r4, r4, #2, #1
    d64c:	0a00000f 	beq	d690 <rt_memcpy+0x200>
    d650:	e3540000 	cmp	r4, #0
    d654:	0a000003 	beq	d668 <rt_memcpy+0x1d8>
    d658:	e49c4004 	ldr	r4, [ip], #4
    d65c:	e4834004 	str	r4, [r3], #4
    d660:	e1530007 	cmp	r3, r7
    d664:	0a000009 	beq	d690 <rt_memcpy+0x200>
    d668:	e1a0500c 	mov	r5, ip
    d66c:	e1a04003 	mov	r4, r3
    d670:	e4956004 	ldr	r6, [r5], #4
    d674:	e4846004 	str	r6, [r4], #4
    d678:	e59c6004 	ldr	r6, [ip, #4]
    d67c:	e285c004 	add	ip, r5, #4
    d680:	e5836004 	str	r6, [r3, #4]
    d684:	e2843004 	add	r3, r4, #4
    d688:	e1530007 	cmp	r3, r7
    d68c:	1afffff5 	bne	d668 <rt_memcpy+0x1d8>
    d690:	e28a3001 	add	r3, sl, #1
    d694:	e042210a 	sub	r2, r2, sl, lsl #2
    d698:	e1a0c103 	lsl	ip, r3, #2
    d69c:	e081100c 	add	r1, r1, ip
    d6a0:	e088c00c 	add	ip, r8, ip
    d6a4:	eaffff80 	b	d4ac <rt_memcpy+0x1c>

0000d6a8 <rt_memmove>:
    d6a8:	e1500001 	cmp	r0, r1
    d6ac:	e92d00f0 	push	{r4, r5, r6, r7}
    d6b0:	9a000002 	bls	d6c0 <rt_memmove+0x18>
    d6b4:	e081c002 	add	ip, r1, r2
    d6b8:	e150000c 	cmp	r0, ip
    d6bc:	3a00001c 	bcc	d734 <rt_memmove+0x8c>
    d6c0:	e3520000 	cmp	r2, #0
    d6c4:	0a000018 	beq	d72c <rt_memmove+0x84>
    d6c8:	e4d1c001 	ldrb	ip, [r1], #1
    d6cc:	e0802002 	add	r2, r0, r2
    d6d0:	e1a03000 	mov	r3, r0
    d6d4:	e1e04000 	mvn	r4, r0
    d6d8:	e0824004 	add	r4, r2, r4
    d6dc:	e4c3c001 	strb	ip, [r3], #1
    d6e0:	e1530002 	cmp	r3, r2
    d6e4:	e2044001 	and	r4, r4, #1
    d6e8:	0a00000f 	beq	d72c <rt_memmove+0x84>
    d6ec:	e3540000 	cmp	r4, #0
    d6f0:	0a000003 	beq	d704 <rt_memmove+0x5c>
    d6f4:	e4d1c001 	ldrb	ip, [r1], #1
    d6f8:	e4c3c001 	strb	ip, [r3], #1
    d6fc:	e1530002 	cmp	r3, r2
    d700:	0a000009 	beq	d72c <rt_memmove+0x84>
    d704:	e1a04001 	mov	r4, r1
    d708:	e1a0c003 	mov	ip, r3
    d70c:	e4d45001 	ldrb	r5, [r4], #1
    d710:	e4cc5001 	strb	r5, [ip], #1
    d714:	e5d15001 	ldrb	r5, [r1, #1]
    d718:	e2841001 	add	r1, r4, #1
    d71c:	e5c35001 	strb	r5, [r3, #1]
    d720:	e28c3001 	add	r3, ip, #1
    d724:	e1530002 	cmp	r3, r2
    d728:	1afffff5 	bne	d704 <rt_memmove+0x5c>
    d72c:	e8bd00f0 	pop	{r4, r5, r6, r7}
    d730:	e12fff1e 	bx	lr
    d734:	e3520000 	cmp	r2, #0
    d738:	0afffffb 	beq	d72c <rt_memmove+0x84>
    d73c:	e2623000 	rsb	r3, r2, #0
    d740:	e0801002 	add	r1, r0, r2
    d744:	e08cc003 	add	ip, ip, r3
    d748:	e2424001 	sub	r4, r2, #1
    d74c:	e08c5002 	add	r5, ip, r2
    d750:	e0811003 	add	r1, r1, r3
    d754:	e0812002 	add	r2, r1, r2
    d758:	e2543000 	subs	r3, r4, #0
    d75c:	e5555001 	ldrb	r5, [r5, #-1]
    d760:	e2044001 	and	r4, r4, #1
    d764:	e5425001 	strb	r5, [r2, #-1]
    d768:	0affffef 	beq	d72c <rt_memmove+0x84>
    d76c:	e3540000 	cmp	r4, #0
    d770:	0a000005 	beq	d78c <rt_memmove+0xe4>
    d774:	e08c4003 	add	r4, ip, r3
    d778:	e0812003 	add	r2, r1, r3
    d77c:	e2533001 	subs	r3, r3, #1
    d780:	e5544001 	ldrb	r4, [r4, #-1]
    d784:	e5424001 	strb	r4, [r2, #-1]
    d788:	0affffe7 	beq	d72c <rt_memmove+0x84>
    d78c:	e08c7003 	add	r7, ip, r3
    d790:	e2432001 	sub	r2, r3, #1
    d794:	e0816003 	add	r6, r1, r3
    d798:	e08c5002 	add	r5, ip, r2
    d79c:	e5577001 	ldrb	r7, [r7, #-1]
    d7a0:	e0814002 	add	r4, r1, r2
    d7a4:	e2523001 	subs	r3, r2, #1
    d7a8:	e5467001 	strb	r7, [r6, #-1]
    d7ac:	e5552001 	ldrb	r2, [r5, #-1]
    d7b0:	e5442001 	strb	r2, [r4, #-1]
    d7b4:	1afffff4 	bne	d78c <rt_memmove+0xe4>
    d7b8:	eaffffdb 	b	d72c <rt_memmove+0x84>

0000d7bc <rt_memcmp>:
    d7bc:	e3520000 	cmp	r2, #0
    d7c0:	e1a03000 	mov	r3, r0
    d7c4:	e92d00f0 	push	{r4, r5, r6, r7}
    d7c8:	01a00002 	moveq	r0, r2
    d7cc:	0a00000d 	beq	d808 <rt_memcmp+0x4c>
    d7d0:	e5d0c000 	ldrb	ip, [r0]
    d7d4:	e5d10000 	ldrb	r0, [r1]
    d7d8:	e05c0000 	subs	r0, ip, r0
    d7dc:	1a000009 	bne	d808 <rt_memcmp+0x4c>
    d7e0:	e283c001 	add	ip, r3, #1
    d7e4:	e0832002 	add	r2, r3, r2
    d7e8:	e06c3002 	rsb	r3, ip, r2
    d7ec:	e3130001 	tst	r3, #1
    d7f0:	0a000010 	beq	d838 <rt_memcmp+0x7c>
    d7f4:	e4dc6001 	ldrb	r6, [ip], #1
    d7f8:	e5f13001 	ldrb	r3, [r1, #1]!
    d7fc:	e0566003 	subs	r6, r6, r3
    d800:	0a00000c 	beq	d838 <rt_memcmp+0x7c>
    d804:	e1a00006 	mov	r0, r6
    d808:	e8bd00f0 	pop	{r4, r5, r6, r7}
    d80c:	e12fff1e 	bx	lr
    d810:	e5d16001 	ldrb	r6, [r1, #1]
    d814:	e2851001 	add	r1, r5, #1
    d818:	e4d47001 	ldrb	r7, [r4], #1
    d81c:	e0576006 	subs	r6, r7, r6
    d820:	1afffff7 	bne	d804 <rt_memcmp+0x48>
    d824:	e5dc6001 	ldrb	r6, [ip, #1]
    d828:	e284c001 	add	ip, r4, #1
    d82c:	e5d54001 	ldrb	r4, [r5, #1]
    d830:	e0566004 	subs	r6, r6, r4
    d834:	1afffff2 	bne	d804 <rt_memcmp+0x48>
    d838:	e15c0002 	cmp	ip, r2
    d83c:	e1a0400c 	mov	r4, ip
    d840:	e2815001 	add	r5, r1, #1
    d844:	1afffff1 	bne	d810 <rt_memcmp+0x54>
    d848:	eaffffee 	b	d808 <rt_memcmp+0x4c>

0000d84c <rt_strstr>:
    d84c:	e5d12000 	ldrb	r2, [r1]
    d850:	e92d0ff0 	push	{r4, r5, r6, r7, r8, r9, sl, fp}
    d854:	e3520000 	cmp	r2, #0
    d858:	e24dd008 	sub	sp, sp, #8
    d85c:	e58d2004 	str	r2, [sp, #4]
    d860:	0a000016 	beq	d8c0 <rt_strstr+0x74>
    d864:	e1a03001 	mov	r3, r1
    d868:	e1a0b001 	mov	fp, r1
    d86c:	e5f3c001 	ldrb	ip, [r3, #1]!
    d870:	e28bb001 	add	fp, fp, #1
    d874:	e35c0000 	cmp	ip, #0
    d878:	1afffffb 	bne	d86c <rt_strstr+0x20>
    d87c:	e05bb001 	subs	fp, fp, r1
    d880:	0a00000e 	beq	d8c0 <rt_strstr+0x74>
    d884:	e5d0a000 	ldrb	sl, [r0]
    d888:	e35a0000 	cmp	sl, #0
    d88c:	0a000006 	beq	d8ac <rt_strstr+0x60>
    d890:	e1a03000 	mov	r3, r0
    d894:	e1a0a000 	mov	sl, r0
    d898:	e5f32001 	ldrb	r2, [r3, #1]!
    d89c:	e28aa001 	add	sl, sl, #1
    d8a0:	e3520000 	cmp	r2, #0
    d8a4:	1afffffb 	bne	d898 <rt_strstr+0x4c>
    d8a8:	e060a00a 	rsb	sl, r0, sl
    d8ac:	e15b000a 	cmp	fp, sl
    d8b0:	ca00002c 	bgt	d968 <rt_strstr+0x11c>
    d8b4:	e35b0000 	cmp	fp, #0
    d8b8:	e1a08000 	mov	r8, r0
    d8bc:	1a000002 	bne	d8cc <rt_strstr+0x80>
    d8c0:	e28dd008 	add	sp, sp, #8
    d8c4:	e8bd0ff0 	pop	{r4, r5, r6, r7, r8, r9, sl, fp}
    d8c8:	e12fff1e 	bx	lr
    d8cc:	e24b9001 	sub	r9, fp, #1
    d8d0:	e5d03000 	ldrb	r3, [r0]
    d8d4:	e2888001 	add	r8, r8, #1
    d8d8:	e59dc004 	ldr	ip, [sp, #4]
    d8dc:	e153000c 	cmp	r3, ip
    d8e0:	1a00001c 	bne	d958 <rt_strstr+0x10c>
    d8e4:	e3190001 	tst	r9, #1
    d8e8:	e1a0c001 	mov	ip, r1
    d8ec:	e1a03008 	mov	r3, r8
    d8f0:	e0897008 	add	r7, r9, r8
    d8f4:	0a000005 	beq	d910 <rt_strstr+0xc4>
    d8f8:	e1a03008 	mov	r3, r8
    d8fc:	e5d14001 	ldrb	r4, [r1, #1]
    d900:	e4d32001 	ldrb	r2, [r3], #1
    d904:	e281c001 	add	ip, r1, #1
    d908:	e1540002 	cmp	r4, r2
    d90c:	1a000011 	bne	d958 <rt_strstr+0x10c>
    d910:	e1a06000 	mov	r6, r0
    d914:	ea000009 	b	d940 <rt_strstr+0xf4>
    d918:	e5dc5001 	ldrb	r5, [ip, #1]
    d91c:	e280c001 	add	ip, r0, #1
    d920:	e4d24001 	ldrb	r4, [r2], #1
    d924:	e1550004 	cmp	r5, r4
    d928:	1a00000a 	bne	d958 <rt_strstr+0x10c>
    d92c:	e5d34001 	ldrb	r4, [r3, #1]
    d930:	e2823001 	add	r3, r2, #1
    d934:	e5d00001 	ldrb	r0, [r0, #1]
    d938:	e1500004 	cmp	r0, r4
    d93c:	1a000005 	bne	d958 <rt_strstr+0x10c>
    d940:	e1570003 	cmp	r7, r3
    d944:	e1a02003 	mov	r2, r3
    d948:	e28c0001 	add	r0, ip, #1
    d94c:	1afffff1 	bne	d918 <rt_strstr+0xcc>
    d950:	e1a00006 	mov	r0, r6
    d954:	eaffffd9 	b	d8c0 <rt_strstr+0x74>
    d958:	e24aa001 	sub	sl, sl, #1
    d95c:	e15a000b 	cmp	sl, fp
    d960:	a1a00008 	movge	r0, r8
    d964:	aaffffd9 	bge	d8d0 <rt_strstr+0x84>
    d968:	e3a00000 	mov	r0, #0
    d96c:	eaffffd3 	b	d8c0 <rt_strstr+0x74>

0000d970 <rt_strcasecmp>:
    d970:	e52d4004 	push	{r4}		; (str r4, [sp, #-4]!)
    d974:	e4d03001 	ldrb	r3, [r0], #1
    d978:	e4d12001 	ldrb	r2, [r1], #1
    d97c:	e2434041 	sub	r4, r3, #65	; 0x41
    d980:	e242c041 	sub	ip, r2, #65	; 0x41
    d984:	e3540019 	cmp	r4, #25
    d988:	92833020 	addls	r3, r3, #32
    d98c:	e35c0019 	cmp	ip, #25
    d990:	92822020 	addls	r2, r2, #32
    d994:	e1530002 	cmp	r3, r2
    d998:	13a0c000 	movne	ip, #0
    d99c:	03a0c001 	moveq	ip, #1
    d9a0:	e3530000 	cmp	r3, #0
    d9a4:	03a0c000 	moveq	ip, #0
    d9a8:	e35c0000 	cmp	ip, #0
    d9ac:	1afffff0 	bne	d974 <rt_strcasecmp+0x4>
    d9b0:	e0620003 	rsb	r0, r2, r3
    d9b4:	e8bd0010 	pop	{r4}
    d9b8:	e12fff1e 	bx	lr

0000d9bc <rt_strncpy>:
    d9bc:	e3520000 	cmp	r2, #0
    d9c0:	e92d0070 	push	{r4, r5, r6}
    d9c4:	0a000037 	beq	daa8 <rt_strncpy+0xec>
    d9c8:	e4d13001 	ldrb	r3, [r1], #1
    d9cc:	e1a0c000 	mov	ip, r0
    d9d0:	e2424001 	sub	r4, r2, #1
    d9d4:	e3530000 	cmp	r3, #0
    d9d8:	e2045001 	and	r5, r4, #1
    d9dc:	e4cc3001 	strb	r3, [ip], #1
    d9e0:	e1a0300c 	mov	r3, ip
    d9e4:	0a000019 	beq	da50 <rt_strncpy+0x94>
    d9e8:	e2542000 	subs	r2, r4, #0
    d9ec:	0a00002d 	beq	daa8 <rt_strncpy+0xec>
    d9f0:	e3550000 	cmp	r5, #0
    d9f4:	0a000006 	beq	da14 <rt_strncpy+0x58>
    d9f8:	e4d13001 	ldrb	r3, [r1], #1
    d9fc:	e3530000 	cmp	r3, #0
    da00:	e4cc3001 	strb	r3, [ip], #1
    da04:	e1a0300c 	mov	r3, ip
    da08:	0a000010 	beq	da50 <rt_strncpy+0x94>
    da0c:	e2522001 	subs	r2, r2, #1
    da10:	0a000024 	beq	daa8 <rt_strncpy+0xec>
    da14:	e1a04001 	mov	r4, r1
    da18:	e1a0300c 	mov	r3, ip
    da1c:	e4d45001 	ldrb	r5, [r4], #1
    da20:	e3550000 	cmp	r5, #0
    da24:	e4c35001 	strb	r5, [r3], #1
    da28:	e1a06003 	mov	r6, r3
    da2c:	0a000007 	beq	da50 <rt_strncpy+0x94>
    da30:	e5d15001 	ldrb	r5, [r1, #1]
    da34:	e2422001 	sub	r2, r2, #1
    da38:	e2841001 	add	r1, r4, #1
    da3c:	e2833001 	add	r3, r3, #1
    da40:	e3550000 	cmp	r5, #0
    da44:	e5cc5001 	strb	r5, [ip, #1]
    da48:	e286c001 	add	ip, r6, #1
    da4c:	1affffee 	bne	da0c <rt_strncpy+0x50>
    da50:	e2522001 	subs	r2, r2, #1
    da54:	0a000013 	beq	daa8 <rt_strncpy+0xec>
    da58:	e0832002 	add	r2, r3, r2
    da5c:	e1a01003 	mov	r1, r3
    da60:	e3a0c000 	mov	ip, #0
    da64:	e4c1c001 	strb	ip, [r1], #1
    da68:	e1510002 	cmp	r1, r2
    da6c:	e1e03003 	mvn	r3, r3
    da70:	e0823003 	add	r3, r2, r3
    da74:	e2033001 	and	r3, r3, #1
    da78:	0a00000a 	beq	daa8 <rt_strncpy+0xec>
    da7c:	e3530000 	cmp	r3, #0
    da80:	0a000002 	beq	da90 <rt_strncpy+0xd4>
    da84:	e4c1c001 	strb	ip, [r1], #1
    da88:	e1510002 	cmp	r1, r2
    da8c:	0a000005 	beq	daa8 <rt_strncpy+0xec>
    da90:	e1a03001 	mov	r3, r1
    da94:	e4c3c001 	strb	ip, [r3], #1
    da98:	e5c1c001 	strb	ip, [r1, #1]
    da9c:	e2831001 	add	r1, r3, #1
    daa0:	e1510002 	cmp	r1, r2
    daa4:	1afffff9 	bne	da90 <rt_strncpy+0xd4>
    daa8:	e8bd0070 	pop	{r4, r5, r6}
    daac:	e12fff1e 	bx	lr

0000dab0 <rt_strncmp>:
    dab0:	e3520000 	cmp	r2, #0
    dab4:	e52d4004 	push	{r4}		; (str r4, [sp, #-4]!)
    dab8:	01a00002 	moveq	r0, r2
    dabc:	0a000027 	beq	db60 <rt_strncmp+0xb0>
    dac0:	e5d03000 	ldrb	r3, [r0]
    dac4:	e5d1c000 	ldrb	ip, [r1]
    dac8:	e06cc003 	rsb	ip, ip, r3
    dacc:	e6efc07c 	uxtb	ip, ip
    dad0:	e35c0000 	cmp	ip, #0
    dad4:	1a000020 	bne	db5c <rt_strncmp+0xac>
    dad8:	e3530000 	cmp	r3, #0
    dadc:	0a000021 	beq	db68 <rt_strncmp+0xb8>
    dae0:	e240c001 	sub	ip, r0, #1
    dae4:	e08c2002 	add	r2, ip, r2
    dae8:	e0603002 	rsb	r3, r0, r2
    daec:	e3130001 	tst	r3, #1
    daf0:	0a000007 	beq	db14 <rt_strncmp+0x64>
    daf4:	e5f03001 	ldrb	r3, [r0, #1]!
    daf8:	e5f1c001 	ldrb	ip, [r1, #1]!
    dafc:	e06cc003 	rsb	ip, ip, r3
    db00:	e6efc07c 	uxtb	ip, ip
    db04:	e35c0000 	cmp	ip, #0
    db08:	1a000013 	bne	db5c <rt_strncmp+0xac>
    db0c:	e3530000 	cmp	r3, #0
    db10:	0a000014 	beq	db68 <rt_strncmp+0xb8>
    db14:	e1500002 	cmp	r0, r2
    db18:	e1a04000 	mov	r4, r0
    db1c:	0a000013 	beq	db70 <rt_strncmp+0xc0>
    db20:	e5f43001 	ldrb	r3, [r4, #1]!
    db24:	e5f1c001 	ldrb	ip, [r1, #1]!
    db28:	e06cc003 	rsb	ip, ip, r3
    db2c:	e1a00004 	mov	r0, r4
    db30:	e6efc07c 	uxtb	ip, ip
    db34:	e35c0000 	cmp	ip, #0
    db38:	1a000007 	bne	db5c <rt_strncmp+0xac>
    db3c:	e3530000 	cmp	r3, #0
    db40:	0a000008 	beq	db68 <rt_strncmp+0xb8>
    db44:	e5f03001 	ldrb	r3, [r0, #1]!
    db48:	e5f1c001 	ldrb	ip, [r1, #1]!
    db4c:	e06cc003 	rsb	ip, ip, r3
    db50:	e6efc07c 	uxtb	ip, ip
    db54:	e35c0000 	cmp	ip, #0
    db58:	0affffeb 	beq	db0c <rt_strncmp+0x5c>
    db5c:	e6af007c 	sxtb	r0, ip
    db60:	e8bd0010 	pop	{r4}
    db64:	e12fff1e 	bx	lr
    db68:	e1a00003 	mov	r0, r3
    db6c:	eafffffb 	b	db60 <rt_strncmp+0xb0>
    db70:	e3a00000 	mov	r0, #0
    db74:	eafffff9 	b	db60 <rt_strncmp+0xb0>

0000db78 <rt_strcmp>:
    db78:	e5d03000 	ldrb	r3, [r0]
    db7c:	e5d12000 	ldrb	r2, [r1]
    db80:	e3530000 	cmp	r3, #0
    db84:	1a000004 	bne	db9c <rt_strcmp+0x24>
    db88:	ea000005 	b	dba4 <rt_strcmp+0x2c>
    db8c:	e5f03001 	ldrb	r3, [r0, #1]!
    db90:	e3530000 	cmp	r3, #0
    db94:	0a000004 	beq	dbac <rt_strcmp+0x34>
    db98:	e5f12001 	ldrb	r2, [r1, #1]!
    db9c:	e1530002 	cmp	r3, r2
    dba0:	0afffff9 	beq	db8c <rt_strcmp+0x14>
    dba4:	e0620003 	rsb	r0, r2, r3
    dba8:	e12fff1e 	bx	lr
    dbac:	e5d12001 	ldrb	r2, [r1, #1]
    dbb0:	e0620003 	rsb	r0, r2, r3
    dbb4:	e12fff1e 	bx	lr

0000dbb8 <rt_strlen>:
    dbb8:	e5d03000 	ldrb	r3, [r0]
    dbbc:	e3530000 	cmp	r3, #0
    dbc0:	0a000007 	beq	dbe4 <rt_strlen+0x2c>
    dbc4:	e1a02000 	mov	r2, r0
    dbc8:	e1a03000 	mov	r3, r0
    dbcc:	e5f21001 	ldrb	r1, [r2, #1]!
    dbd0:	e2833001 	add	r3, r3, #1
    dbd4:	e3510000 	cmp	r1, #0
    dbd8:	1afffffb 	bne	dbcc <rt_strlen+0x14>
    dbdc:	e0600003 	rsb	r0, r0, r3
    dbe0:	e12fff1e 	bx	lr
    dbe4:	e1a00003 	mov	r0, r3
    dbe8:	e12fff1e 	bx	lr

0000dbec <rt_strdup>:
    dbec:	e92d4070 	push	{r4, r5, r6, lr}
    dbf0:	e1a06000 	mov	r6, r0
    dbf4:	e5d03000 	ldrb	r3, [r0]
    dbf8:	e3530000 	cmp	r3, #0
    dbfc:	03a05001 	moveq	r5, #1
    dc00:	0a000007 	beq	dc24 <rt_strdup+0x38>
    dc04:	e1a03000 	mov	r3, r0
    dc08:	e1a05000 	mov	r5, r0
    dc0c:	e5f32001 	ldrb	r2, [r3, #1]!
    dc10:	e2855001 	add	r5, r5, #1
    dc14:	e3520000 	cmp	r2, #0
    dc18:	1afffffb 	bne	dc0c <rt_strdup+0x20>
    dc1c:	e0665005 	rsb	r5, r6, r5
    dc20:	e2855001 	add	r5, r5, #1
    dc24:	e1a00005 	mov	r0, r5
    dc28:	eb00033e 	bl	e928 <rt_malloc>
    dc2c:	e2504000 	subs	r4, r0, #0
    dc30:	0a000002 	beq	dc40 <rt_strdup+0x54>
    dc34:	e1a01006 	mov	r1, r6
    dc38:	e1a02005 	mov	r2, r5
    dc3c:	ebfffe13 	bl	d490 <rt_memcpy>
    dc40:	e1a00004 	mov	r0, r4
    dc44:	e8bd8070 	pop	{r4, r5, r6, pc}

0000dc48 <rt_vsnprintf>:
    dc48:	e92d4ff0 	push	{r4, r5, r6, r7, r8, r9, sl, fp, lr}
    dc4c:	e2416001 	sub	r6, r1, #1
    dc50:	e0901006 	adds	r1, r0, r6
    dc54:	e1a04002 	mov	r4, r2
    dc58:	e5d22000 	ldrb	r2, [r2]
    dc5c:	e24dd01c 	sub	sp, sp, #28
    dc60:	31a06001 	movcc	r6, r1
    dc64:	23e06000 	mvncs	r6, #0
    dc68:	e1a09000 	mov	r9, r0
    dc6c:	e3520000 	cmp	r2, #0
    dc70:	e1a07003 	mov	r7, r3
    dc74:	0a0000c3 	beq	df88 <rt_vsnprintf+0x340>
    dc78:	e30cbb48 	movw	fp, #52040	; 0xcb48
    dc7c:	e3a0a020 	mov	sl, #32
    dc80:	e340b002 	movt	fp, #2
    dc84:	ea000006 	b	dca4 <rt_vsnprintf+0x5c>
    dc88:	e1560000 	cmp	r6, r0
    dc8c:	25c02000 	strbcs	r2, [r0]
    dc90:	e5d42001 	ldrb	r2, [r4, #1]
    dc94:	e2800001 	add	r0, r0, #1
    dc98:	e3520000 	cmp	r2, #0
    dc9c:	e2844001 	add	r4, r4, #1
    dca0:	0a0000b7 	beq	df84 <rt_vsnprintf+0x33c>
    dca4:	e3520025 	cmp	r2, #37	; 0x25
    dca8:	01a02004 	moveq	r2, r4
    dcac:	03a0c000 	moveq	ip, #0
    dcb0:	1afffff4 	bne	dc88 <rt_vsnprintf+0x40>
    dcb4:	e1a01002 	mov	r1, r2
    dcb8:	e2822001 	add	r2, r2, #1
    dcbc:	e5d13001 	ldrb	r3, [r1, #1]
    dcc0:	e1a04002 	mov	r4, r2
    dcc4:	e353002d 	cmp	r3, #45	; 0x2d
    dcc8:	038cc010 	orreq	ip, ip, #16
    dccc:	0afffff8 	beq	dcb4 <rt_vsnprintf+0x6c>
    dcd0:	e353002b 	cmp	r3, #43	; 0x2b
    dcd4:	038cc004 	orreq	ip, ip, #4
    dcd8:	0afffff5 	beq	dcb4 <rt_vsnprintf+0x6c>
    dcdc:	e3530020 	cmp	r3, #32
    dce0:	038cc008 	orreq	ip, ip, #8
    dce4:	0afffff2 	beq	dcb4 <rt_vsnprintf+0x6c>
    dce8:	e3530023 	cmp	r3, #35	; 0x23
    dcec:	038cc020 	orreq	ip, ip, #32
    dcf0:	0affffef 	beq	dcb4 <rt_vsnprintf+0x6c>
    dcf4:	e3530030 	cmp	r3, #48	; 0x30
    dcf8:	1a000008 	bne	dd20 <rt_vsnprintf+0xd8>
    dcfc:	e1a01002 	mov	r1, r2
    dd00:	e2822001 	add	r2, r2, #1
    dd04:	e5d13001 	ldrb	r3, [r1, #1]
    dd08:	e38cc001 	orr	ip, ip, #1
    dd0c:	e1a04002 	mov	r4, r2
    dd10:	e353002d 	cmp	r3, #45	; 0x2d
    dd14:	038cc010 	orreq	ip, ip, #16
    dd18:	1affffec 	bne	dcd0 <rt_vsnprintf+0x88>
    dd1c:	eaffffe4 	b	dcb4 <rt_vsnprintf+0x6c>
    dd20:	e2435030 	sub	r5, r3, #48	; 0x30
    dd24:	e1a08003 	mov	r8, r3
    dd28:	e3550009 	cmp	r5, #9
    dd2c:	8a00006c 	bhi	dee4 <rt_vsnprintf+0x29c>
    dd30:	e3a05000 	mov	r5, #0
    dd34:	e0853105 	add	r3, r5, r5, lsl #2
    dd38:	e2844001 	add	r4, r4, #1
    dd3c:	e0885083 	add	r5, r8, r3, lsl #1
    dd40:	e5f28001 	ldrb	r8, [r2, #1]!
    dd44:	e2455030 	sub	r5, r5, #48	; 0x30
    dd48:	e2483030 	sub	r3, r8, #48	; 0x30
    dd4c:	e3530009 	cmp	r3, #9
    dd50:	e1a03008 	mov	r3, r8
    dd54:	9afffff6 	bls	dd34 <rt_vsnprintf+0xec>
    dd58:	e353002e 	cmp	r3, #46	; 0x2e
    dd5c:	13e08000 	mvnne	r8, #0
    dd60:	0a00006c 	beq	df18 <rt_vsnprintf+0x2d0>
    dd64:	e3530068 	cmp	r3, #104	; 0x68
    dd68:	1353006c 	cmpne	r3, #108	; 0x6c
    dd6c:	05d41001 	ldrbeq	r1, [r4, #1]
    dd70:	13a02000 	movne	r2, #0
    dd74:	03a02001 	moveq	r2, #1
    dd78:	01a02003 	moveq	r2, r3
    dd7c:	02844001 	addeq	r4, r4, #1
    dd80:	01a03001 	moveq	r3, r1
    dd84:	e2431025 	sub	r1, r3, #37	; 0x25
    dd88:	e3510053 	cmp	r1, #83	; 0x53
    dd8c:	979ff101 	ldrls	pc, [pc, r1, lsl #2]
    dd90:	ea000073 	b	df64 <rt_vsnprintf+0x31c>
    dd94:	0000e350 	andeq	lr, r0, r0, asr r3
    dd98:	0000df64 	andeq	sp, r0, r4, ror #30
    dd9c:	0000df64 	andeq	sp, r0, r4, ror #30
    dda0:	0000df64 	andeq	sp, r0, r4, ror #30
    dda4:	0000df64 	andeq	sp, r0, r4, ror #30
    dda8:	0000df64 	andeq	sp, r0, r4, ror #30
    ddac:	0000df64 	andeq	sp, r0, r4, ror #30
    ddb0:	0000df64 	andeq	sp, r0, r4, ror #30
    ddb4:	0000df64 	andeq	sp, r0, r4, ror #30
    ddb8:	0000df64 	andeq	sp, r0, r4, ror #30
    ddbc:	0000df64 	andeq	sp, r0, r4, ror #30
    ddc0:	0000df64 	andeq	sp, r0, r4, ror #30
    ddc4:	0000df64 	andeq	sp, r0, r4, ror #30
    ddc8:	0000df64 	andeq	sp, r0, r4, ror #30
    ddcc:	0000df64 	andeq	sp, r0, r4, ror #30
    ddd0:	0000df64 	andeq	sp, r0, r4, ror #30
    ddd4:	0000df64 	andeq	sp, r0, r4, ror #30
    ddd8:	0000df64 	andeq	sp, r0, r4, ror #30
    dddc:	0000df64 	andeq	sp, r0, r4, ror #30
    dde0:	0000df64 	andeq	sp, r0, r4, ror #30
    dde4:	0000df64 	andeq	sp, r0, r4, ror #30
    dde8:	0000df64 	andeq	sp, r0, r4, ror #30
    ddec:	0000df64 	andeq	sp, r0, r4, ror #30
    ddf0:	0000df64 	andeq	sp, r0, r4, ror #30
    ddf4:	0000df64 	andeq	sp, r0, r4, ror #30
    ddf8:	0000df64 	andeq	sp, r0, r4, ror #30
    ddfc:	0000df64 	andeq	sp, r0, r4, ror #30
    de00:	0000df64 	andeq	sp, r0, r4, ror #30
    de04:	0000df64 	andeq	sp, r0, r4, ror #30
    de08:	0000df64 	andeq	sp, r0, r4, ror #30
    de0c:	0000df64 	andeq	sp, r0, r4, ror #30
    de10:	0000df64 	andeq	sp, r0, r4, ror #30
    de14:	0000df64 	andeq	sp, r0, r4, ror #30
    de18:	0000df64 	andeq	sp, r0, r4, ror #30
    de1c:	0000df64 	andeq	sp, r0, r4, ror #30
    de20:	0000df64 	andeq	sp, r0, r4, ror #30
    de24:	0000df64 	andeq	sp, r0, r4, ror #30
    de28:	0000df64 	andeq	sp, r0, r4, ror #30
    de2c:	0000df64 	andeq	sp, r0, r4, ror #30
    de30:	0000df64 	andeq	sp, r0, r4, ror #30
    de34:	0000df64 	andeq	sp, r0, r4, ror #30
    de38:	0000df64 	andeq	sp, r0, r4, ror #30
    de3c:	0000df64 	andeq	sp, r0, r4, ror #30
    de40:	0000df64 	andeq	sp, r0, r4, ror #30
    de44:	0000df64 	andeq	sp, r0, r4, ror #30
    de48:	0000df64 	andeq	sp, r0, r4, ror #30
    de4c:	0000df64 	andeq	sp, r0, r4, ror #30
    de50:	0000df64 	andeq	sp, r0, r4, ror #30
    de54:	0000df64 	andeq	sp, r0, r4, ror #30
    de58:	0000df64 	andeq	sp, r0, r4, ror #30
    de5c:	0000df64 	andeq	sp, r0, r4, ror #30
    de60:	0000e330 	andeq	lr, r0, r0, lsr r3
    de64:	0000df64 	andeq	sp, r0, r4, ror #30
    de68:	0000df64 	andeq	sp, r0, r4, ror #30
    de6c:	0000df64 	andeq	sp, r0, r4, ror #30
    de70:	0000df64 	andeq	sp, r0, r4, ror #30
    de74:	0000df64 	andeq	sp, r0, r4, ror #30
    de78:	0000df64 	andeq	sp, r0, r4, ror #30
    de7c:	0000df64 	andeq	sp, r0, r4, ror #30
    de80:	0000df64 	andeq	sp, r0, r4, ror #30
    de84:	0000df64 	andeq	sp, r0, r4, ror #30
    de88:	0000df64 	andeq	sp, r0, r4, ror #30
    de8c:	0000e21c 	andeq	lr, r0, ip, lsl r2
    de90:	0000e344 	andeq	lr, r0, r4, asr #6
    de94:	0000df64 	andeq	sp, r0, r4, ror #30
    de98:	0000df64 	andeq	sp, r0, r4, ror #30
    de9c:	0000df64 	andeq	sp, r0, r4, ror #30
    dea0:	0000df64 	andeq	sp, r0, r4, ror #30
    dea4:	0000e344 	andeq	lr, r0, r4, asr #6
    dea8:	0000df64 	andeq	sp, r0, r4, ror #30
    deac:	0000df64 	andeq	sp, r0, r4, ror #30
    deb0:	0000df64 	andeq	sp, r0, r4, ror #30
    deb4:	0000df64 	andeq	sp, r0, r4, ror #30
    deb8:	0000df64 	andeq	sp, r0, r4, ror #30
    debc:	0000e33c 	andeq	lr, r0, ip, lsr r3
    dec0:	0000e1fc 	strdeq	lr, [r0], -ip
    dec4:	0000df64 	andeq	sp, r0, r4, ror #30
    dec8:	0000df64 	andeq	sp, r0, r4, ror #30
    decc:	0000e004 	andeq	lr, r0, r4
    ded0:	0000df64 	andeq	sp, r0, r4, ror #30
    ded4:	0000dffc 	strdeq	sp, [r0], -ip
    ded8:	0000df64 	andeq	sp, r0, r4, ror #30
    dedc:	0000df64 	andeq	sp, r0, r4, ror #30
    dee0:	0000dfcc 	andeq	sp, r0, ip, asr #31
    dee4:	e353002a 	cmp	r3, #42	; 0x2a
    dee8:	13e05000 	mvnne	r5, #0
    deec:	1affff99 	bne	dd58 <rt_vsnprintf+0x110>
    def0:	e5975000 	ldr	r5, [r7]
    def4:	e2814002 	add	r4, r1, #2
    def8:	e5d13002 	ldrb	r3, [r1, #2]
    defc:	e2877004 	add	r7, r7, #4
    df00:	e3550000 	cmp	r5, #0
    df04:	b2655000 	rsblt	r5, r5, #0
    df08:	b38cc010 	orrlt	ip, ip, #16
    df0c:	e353002e 	cmp	r3, #46	; 0x2e
    df10:	13e08000 	mvnne	r8, #0
    df14:	1affff92 	bne	dd64 <rt_vsnprintf+0x11c>
    df18:	e5d42001 	ldrb	r2, [r4, #1]
    df1c:	e2841001 	add	r1, r4, #1
    df20:	e2423030 	sub	r3, r2, #48	; 0x30
    df24:	e3530009 	cmp	r3, #9
    df28:	e1a03002 	mov	r3, r2
    df2c:	8a00001c 	bhi	dfa4 <rt_vsnprintf+0x35c>
    df30:	e1a04001 	mov	r4, r1
    df34:	e3a08000 	mov	r8, #0
    df38:	e0883108 	add	r3, r8, r8, lsl #2
    df3c:	e2844001 	add	r4, r4, #1
    df40:	e0828083 	add	r8, r2, r3, lsl #1
    df44:	e5f12001 	ldrb	r2, [r1, #1]!
    df48:	e2488030 	sub	r8, r8, #48	; 0x30
    df4c:	e2423030 	sub	r3, r2, #48	; 0x30
    df50:	e3530009 	cmp	r3, #9
    df54:	e1a03002 	mov	r3, r2
    df58:	9afffff6 	bls	df38 <rt_vsnprintf+0x2f0>
    df5c:	e1c88fc8 	bic	r8, r8, r8, asr #31
    df60:	eaffff7f 	b	dd64 <rt_vsnprintf+0x11c>
    df64:	e1560000 	cmp	r6, r0
    df68:	e2802001 	add	r2, r0, #1
    df6c:	23a03025 	movcs	r3, #37	; 0x25
    df70:	25c03000 	strbcs	r3, [r0]
    df74:	25d43000 	ldrbcs	r3, [r4]
    df78:	e3530000 	cmp	r3, #0
    df7c:	1a0000fe 	bne	e37c <rt_vsnprintf+0x734>
    df80:	e1a00002 	mov	r0, r2
    df84:	e0692000 	rsb	r2, r9, r0
    df88:	e1560000 	cmp	r6, r0
    df8c:	e3a0c000 	mov	ip, #0
    df90:	25c0c000 	strbcs	ip, [r0]
    df94:	e1a00002 	mov	r0, r2
    df98:	35c6c000 	strbcc	ip, [r6]
    df9c:	e28dd01c 	add	sp, sp, #28
    dfa0:	e8bd8ff0 	pop	{r4, r5, r6, r7, r8, r9, sl, fp, pc}
    dfa4:	e352002a 	cmp	r2, #42	; 0x2a
    dfa8:	11a04001 	movne	r4, r1
    dfac:	13a08000 	movne	r8, #0
    dfb0:	1affff6b 	bne	dd64 <rt_vsnprintf+0x11c>
    dfb4:	e5978000 	ldr	r8, [r7]
    dfb8:	e2877004 	add	r7, r7, #4
    dfbc:	e5d43002 	ldrb	r3, [r4, #2]
    dfc0:	e2844002 	add	r4, r4, #2
    dfc4:	e1c88fc8 	bic	r8, r8, r8, asr #31
    dfc8:	eaffff65 	b	dd64 <rt_vsnprintf+0x11c>
    dfcc:	e3a03010 	mov	r3, #16
    dfd0:	e352006c 	cmp	r2, #108	; 0x6c
    dfd4:	0a000001 	beq	dfe0 <rt_vsnprintf+0x398>
    dfd8:	e3520068 	cmp	r2, #104	; 0x68
    dfdc:	0a0000df 	beq	e360 <rt_vsnprintf+0x718>
    dfe0:	e5972000 	ldr	r2, [r7]
    dfe4:	e2877004 	add	r7, r7, #4
    dfe8:	e1a01006 	mov	r1, r6
    dfec:	e88d1120 	stm	sp, {r5, r8, ip}
    dff0:	ebfffbb2 	bl	cec0 <print_number>
    dff4:	e5d42001 	ldrb	r2, [r4, #1]
    dff8:	eaffff26 	b	dc98 <rt_vsnprintf+0x50>
    dffc:	e3a0300a 	mov	r3, #10
    e000:	eafffff2 	b	dfd0 <rt_vsnprintf+0x388>
    e004:	e5971000 	ldr	r1, [r7]
    e008:	e2877004 	add	r7, r7, #4
    e00c:	e58d7014 	str	r7, [sp, #20]
    e010:	e3510000 	cmp	r1, #0
    e014:	01a0100b 	moveq	r1, fp
    e018:	e5d13000 	ldrb	r3, [r1]
    e01c:	e3530000 	cmp	r3, #0
    e020:	0a000008 	beq	e048 <rt_vsnprintf+0x400>
    e024:	e1a02001 	mov	r2, r1
    e028:	e1a03001 	mov	r3, r1
    e02c:	e1a07000 	mov	r7, r0
    e030:	e5f20001 	ldrb	r0, [r2, #1]!
    e034:	e2833001 	add	r3, r3, #1
    e038:	e3500000 	cmp	r0, #0
    e03c:	1afffffb 	bne	e030 <rt_vsnprintf+0x3e8>
    e040:	e0613003 	rsb	r3, r1, r3
    e044:	e1a00007 	mov	r0, r7
    e048:	e1580003 	cmp	r8, r3
    e04c:	a3a02000 	movge	r2, #0
    e050:	b3a02001 	movlt	r2, #1
    e054:	e3580000 	cmp	r8, #0
    e058:	d3a02000 	movle	r2, #0
    e05c:	e3520000 	cmp	r2, #0
    e060:	01a08003 	moveq	r8, r3
    e064:	e31c0010 	tst	ip, #16
    e068:	1a000023 	bne	e0fc <rt_vsnprintf+0x4b4>
    e06c:	e1580005 	cmp	r8, r5
    e070:	e2452001 	sub	r2, r5, #1
    e074:	a1a05002 	movge	r5, r2
    e078:	aa00001f 	bge	e0fc <rt_vsnprintf+0x4b4>
    e07c:	e080c005 	add	ip, r0, r5
    e080:	e1560000 	cmp	r6, r0
    e084:	e068c00c 	rsb	ip, r8, ip
    e088:	e1e07000 	mvn	r7, r0
    e08c:	e08c3007 	add	r3, ip, r7
    e090:	e1a07005 	mov	r7, r5
    e094:	e2032001 	and	r2, r3, #1
    e098:	25c0a000 	strbcs	sl, [r0]
    e09c:	e2803001 	add	r3, r0, #1
    e0a0:	e153000c 	cmp	r3, ip
    e0a4:	0a00000e 	beq	e0e4 <rt_vsnprintf+0x49c>
    e0a8:	e3520000 	cmp	r2, #0
    e0ac:	0a000004 	beq	e0c4 <rt_vsnprintf+0x47c>
    e0b0:	e1560003 	cmp	r6, r3
    e0b4:	25c3a000 	strbcs	sl, [r3]
    e0b8:	e2833001 	add	r3, r3, #1
    e0bc:	e153000c 	cmp	r3, ip
    e0c0:	0a000007 	beq	e0e4 <rt_vsnprintf+0x49c>
    e0c4:	e2832001 	add	r2, r3, #1
    e0c8:	e1560003 	cmp	r6, r3
    e0cc:	25c3a000 	strbcs	sl, [r3]
    e0d0:	e1560002 	cmp	r6, r2
    e0d4:	25c3a001 	strbcs	sl, [r3, #1]
    e0d8:	e2823001 	add	r3, r2, #1
    e0dc:	e153000c 	cmp	r3, ip
    e0e0:	1afffff7 	bne	e0c4 <rt_vsnprintf+0x47c>
    e0e4:	e2653001 	rsb	r3, r5, #1
    e0e8:	e2455002 	sub	r5, r5, #2
    e0ec:	e0832008 	add	r2, r3, r8
    e0f0:	e0683007 	rsb	r3, r8, r7
    e0f4:	e0855002 	add	r5, r5, r2
    e0f8:	e0800003 	add	r0, r0, r3
    e0fc:	e3580000 	cmp	r8, #0
    e100:	da00001e 	ble	e180 <rt_vsnprintf+0x538>
    e104:	e1560000 	cmp	r6, r0
    e108:	e2487001 	sub	r7, r8, #1
    e10c:	e2072001 	and	r2, r7, #1
    e110:	2a00009e 	bcs	e390 <rt_vsnprintf+0x748>
    e114:	e3a03001 	mov	r3, #1
    e118:	e1530008 	cmp	r3, r8
    e11c:	0a000016 	beq	e17c <rt_vsnprintf+0x534>
    e120:	e3520000 	cmp	r2, #0
    e124:	0a000006 	beq	e144 <rt_vsnprintf+0x4fc>
    e128:	e0802003 	add	r2, r0, r3
    e12c:	e2833001 	add	r3, r3, #1
    e130:	e1560002 	cmp	r6, r2
    e134:	25d12001 	ldrbcs	r2, [r1, #1]
    e138:	25c02001 	strbcs	r2, [r0, #1]
    e13c:	e1530008 	cmp	r3, r8
    e140:	0a00000d 	beq	e17c <rt_vsnprintf+0x534>
    e144:	e1a07005 	mov	r7, r5
    e148:	e0805003 	add	r5, r0, r3
    e14c:	e2832001 	add	r2, r3, #1
    e150:	e1560005 	cmp	r6, r5
    e154:	e080c002 	add	ip, r0, r2
    e158:	27d15003 	ldrbcs	r5, [r1, r3]
    e15c:	27c05003 	strbcs	r5, [r0, r3]
    e160:	e156000c 	cmp	r6, ip
    e164:	27d15002 	ldrbcs	r5, [r1, r2]
    e168:	27c05002 	strbcs	r5, [r0, r2]
    e16c:	e2823001 	add	r3, r2, #1
    e170:	e1530008 	cmp	r3, r8
    e174:	1afffff3 	bne	e148 <rt_vsnprintf+0x500>
    e178:	e1a05007 	mov	r5, r7
    e17c:	e0800008 	add	r0, r0, r8
    e180:	e1580005 	cmp	r8, r5
    e184:	aa000019 	bge	e1f0 <rt_vsnprintf+0x5a8>
    e188:	e0682005 	rsb	r2, r8, r5
    e18c:	e1560000 	cmp	r6, r0
    e190:	e0802002 	add	r2, r0, r2
    e194:	e1e03000 	mvn	r3, r0
    e198:	e0821003 	add	r1, r2, r3
    e19c:	e2013001 	and	r3, r1, #1
    e1a0:	2a00007d 	bcs	e39c <rt_vsnprintf+0x754>
    e1a4:	e2800001 	add	r0, r0, #1
    e1a8:	e1500002 	cmp	r0, r2
    e1ac:	0a00000e 	beq	e1ec <rt_vsnprintf+0x5a4>
    e1b0:	e3530000 	cmp	r3, #0
    e1b4:	0a000004 	beq	e1cc <rt_vsnprintf+0x584>
    e1b8:	e1560000 	cmp	r6, r0
    e1bc:	25c0a000 	strbcs	sl, [r0]
    e1c0:	e2800001 	add	r0, r0, #1
    e1c4:	e1500002 	cmp	r0, r2
    e1c8:	0a000007 	beq	e1ec <rt_vsnprintf+0x5a4>
    e1cc:	e2803001 	add	r3, r0, #1
    e1d0:	e1560000 	cmp	r6, r0
    e1d4:	25c0a000 	strbcs	sl, [r0]
    e1d8:	e1560003 	cmp	r6, r3
    e1dc:	25c0a001 	strbcs	sl, [r0, #1]
    e1e0:	e2830001 	add	r0, r3, #1
    e1e4:	e1500002 	cmp	r0, r2
    e1e8:	1afffff7 	bne	e1cc <rt_vsnprintf+0x584>
    e1ec:	e1a00002 	mov	r0, r2
    e1f0:	e5d42001 	ldrb	r2, [r4, #1]
    e1f4:	e59d7014 	ldr	r7, [sp, #20]
    e1f8:	eafffea6 	b	dc98 <rt_vsnprintf+0x50>
    e1fc:	e3750001 	cmn	r5, #1
    e200:	e5972000 	ldr	r2, [r7]
    e204:	038cc001 	orreq	ip, ip, #1
    e208:	e2877004 	add	r7, r7, #4
    e20c:	03a05008 	moveq	r5, #8
    e210:	e1a01006 	mov	r1, r6
    e214:	e3a03010 	mov	r3, #16
    e218:	eaffff73 	b	dfec <rt_vsnprintf+0x3a4>
    e21c:	e31c0010 	tst	ip, #16
    e220:	1a00001e 	bne	e2a0 <rt_vsnprintf+0x658>
    e224:	e2451001 	sub	r1, r5, #1
    e228:	e3510000 	cmp	r1, #0
    e22c:	d1a05001 	movle	r5, r1
    e230:	da00001a 	ble	e2a0 <rt_vsnprintf+0x658>
    e234:	e2403001 	sub	r3, r0, #1
    e238:	e1560000 	cmp	r6, r0
    e23c:	e0835005 	add	r5, r3, r5
    e240:	e1e0c000 	mvn	ip, r0
    e244:	e085200c 	add	r2, r5, ip
    e248:	e2022001 	and	r2, r2, #1
    e24c:	25c0a000 	strbcs	sl, [r0]
    e250:	e2803001 	add	r3, r0, #1
    e254:	e1530005 	cmp	r3, r5
    e258:	0a00000e 	beq	e298 <rt_vsnprintf+0x650>
    e25c:	e3520000 	cmp	r2, #0
    e260:	0a000004 	beq	e278 <rt_vsnprintf+0x630>
    e264:	e1560003 	cmp	r6, r3
    e268:	25c3a000 	strbcs	sl, [r3]
    e26c:	e2833001 	add	r3, r3, #1
    e270:	e1530005 	cmp	r3, r5
    e274:	0a000007 	beq	e298 <rt_vsnprintf+0x650>
    e278:	e2832001 	add	r2, r3, #1
    e27c:	e1560003 	cmp	r6, r3
    e280:	25c3a000 	strbcs	sl, [r3]
    e284:	e1560002 	cmp	r6, r2
    e288:	25c3a001 	strbcs	sl, [r3, #1]
    e28c:	e2823001 	add	r3, r2, #1
    e290:	e1530005 	cmp	r3, r5
    e294:	1afffff7 	bne	e278 <rt_vsnprintf+0x630>
    e298:	e0800001 	add	r0, r0, r1
    e29c:	e3a05000 	mov	r5, #0
    e2a0:	e287c004 	add	ip, r7, #4
    e2a4:	e5977000 	ldr	r7, [r7]
    e2a8:	e1500006 	cmp	r0, r6
    e2ac:	e2801001 	add	r1, r0, #1
    e2b0:	95c07000 	strbls	r7, [r0]
    e2b4:	e3550001 	cmp	r5, #1
    e2b8:	da00003b 	ble	e3ac <rt_vsnprintf+0x764>
    e2bc:	e0800005 	add	r0, r0, r5
    e2c0:	e1560001 	cmp	r6, r1
    e2c4:	e1e03001 	mvn	r3, r1
    e2c8:	e0802003 	add	r2, r0, r3
    e2cc:	e2022001 	and	r2, r2, #1
    e2d0:	2a000033 	bcs	e3a4 <rt_vsnprintf+0x75c>
    e2d4:	e2813001 	add	r3, r1, #1
    e2d8:	e1530000 	cmp	r3, r0
    e2dc:	0a00000e 	beq	e31c <rt_vsnprintf+0x6d4>
    e2e0:	e3520000 	cmp	r2, #0
    e2e4:	0a000004 	beq	e2fc <rt_vsnprintf+0x6b4>
    e2e8:	e1560003 	cmp	r6, r3
    e2ec:	e2833001 	add	r3, r3, #1
    e2f0:	25c1a001 	strbcs	sl, [r1, #1]
    e2f4:	e1530000 	cmp	r3, r0
    e2f8:	0a000007 	beq	e31c <rt_vsnprintf+0x6d4>
    e2fc:	e2832001 	add	r2, r3, #1
    e300:	e1560003 	cmp	r6, r3
    e304:	25c3a000 	strbcs	sl, [r3]
    e308:	e1560002 	cmp	r6, r2
    e30c:	25c3a001 	strbcs	sl, [r3, #1]
    e310:	e2823001 	add	r3, r2, #1
    e314:	e1530000 	cmp	r3, r0
    e318:	1afffff7 	bne	e2fc <rt_vsnprintf+0x6b4>
    e31c:	e2450001 	sub	r0, r5, #1
    e320:	e5d42001 	ldrb	r2, [r4, #1]
    e324:	e0810000 	add	r0, r1, r0
    e328:	e1a0700c 	mov	r7, ip
    e32c:	eafffe59 	b	dc98 <rt_vsnprintf+0x50>
    e330:	e38cc040 	orr	ip, ip, #64	; 0x40
    e334:	e3a03010 	mov	r3, #16
    e338:	eaffff24 	b	dfd0 <rt_vsnprintf+0x388>
    e33c:	e3a03008 	mov	r3, #8
    e340:	eaffff22 	b	dfd0 <rt_vsnprintf+0x388>
    e344:	e38cc002 	orr	ip, ip, #2
    e348:	e3a0300a 	mov	r3, #10
    e34c:	eaffff1f 	b	dfd0 <rt_vsnprintf+0x388>
    e350:	e1560000 	cmp	r6, r0
    e354:	23a03025 	movcs	r3, #37	; 0x25
    e358:	25c03000 	strbcs	r3, [r0]
    e35c:	eafffe4b 	b	dc90 <rt_vsnprintf+0x48>
    e360:	e1d720b0 	ldrh	r2, [r7]
    e364:	e31c0002 	tst	ip, #2
    e368:	e2871004 	add	r1, r7, #4
    e36c:	16bf2072 	sxthne	r2, r2
    e370:	11a07001 	movne	r7, r1
    e374:	01a07001 	moveq	r7, r1
    e378:	eaffff1a 	b	dfe8 <rt_vsnprintf+0x3a0>
    e37c:	e1520006 	cmp	r2, r6
    e380:	95c03001 	strbls	r3, [r0, #1]
    e384:	e2800002 	add	r0, r0, #2
    e388:	e5d42001 	ldrb	r2, [r4, #1]
    e38c:	eafffe41 	b	dc98 <rt_vsnprintf+0x50>
    e390:	e5d17000 	ldrb	r7, [r1]
    e394:	e5c07000 	strb	r7, [r0]
    e398:	eaffff5d 	b	e114 <rt_vsnprintf+0x4cc>
    e39c:	e5c0a000 	strb	sl, [r0]
    e3a0:	eaffff7f 	b	e1a4 <rt_vsnprintf+0x55c>
    e3a4:	e5c1a000 	strb	sl, [r1]
    e3a8:	eaffffc9 	b	e2d4 <rt_vsnprintf+0x68c>
    e3ac:	e5d42001 	ldrb	r2, [r4, #1]
    e3b0:	e1a0700c 	mov	r7, ip
    e3b4:	e1a00001 	mov	r0, r1
    e3b8:	eafffe36 	b	dc98 <rt_vsnprintf+0x50>

0000e3bc <rt_snprintf>:
    e3bc:	e92d000c 	push	{r2, r3}
    e3c0:	e52de004 	push	{lr}		; (str lr, [sp, #-4]!)
    e3c4:	e24dd00c 	sub	sp, sp, #12
    e3c8:	e28d3014 	add	r3, sp, #20
    e3cc:	e59d2010 	ldr	r2, [sp, #16]
    e3d0:	e58d3004 	str	r3, [sp, #4]
    e3d4:	ebfffe1b 	bl	dc48 <rt_vsnprintf>
    e3d8:	e28dd00c 	add	sp, sp, #12
    e3dc:	e49de004 	pop	{lr}		; (ldr lr, [sp], #4)
    e3e0:	e28dd008 	add	sp, sp, #8
    e3e4:	e12fff1e 	bx	lr

0000e3e8 <rt_vsprintf>:
    e3e8:	e1a0c001 	mov	ip, r1
    e3ec:	e1a03002 	mov	r3, r2
    e3f0:	e3e01000 	mvn	r1, #0
    e3f4:	e1a0200c 	mov	r2, ip
    e3f8:	eafffe12 	b	dc48 <rt_vsnprintf>

0000e3fc <rt_sprintf>:
    e3fc:	e92d000e 	push	{r1, r2, r3}
    e400:	e52de004 	push	{lr}		; (str lr, [sp, #-4]!)
    e404:	e24dd008 	sub	sp, sp, #8
    e408:	e28d2010 	add	r2, sp, #16
    e40c:	e59d100c 	ldr	r1, [sp, #12]
    e410:	e58d2004 	str	r2, [sp, #4]
    e414:	ebfffff3 	bl	e3e8 <rt_vsprintf>
    e418:	e28dd008 	add	sp, sp, #8
    e41c:	e49de004 	pop	{lr}		; (ldr lr, [sp], #4)
    e420:	e28dd00c 	add	sp, sp, #12
    e424:	e12fff1e 	bx	lr

0000e428 <rt_console_get_device>:
    e428:	e30e33e4 	movw	r3, #58340	; 0xe3e4
    e42c:	e3403002 	movt	r3, #2
    e430:	e5930004 	ldr	r0, [r3, #4]
    e434:	e12fff1e 	bx	lr

0000e438 <rt_console_set_device>:
    e438:	e92d4070 	push	{r4, r5, r6, lr}
    e43c:	e30e43e4 	movw	r4, #58340	; 0xe3e4
    e440:	e3404002 	movt	r4, #2
    e444:	e5946004 	ldr	r6, [r4, #4]
    e448:	ebffed6b 	bl	99fc <rt_device_find>
    e44c:	e2505000 	subs	r5, r0, #0
    e450:	0a000007 	beq	e474 <rt_console_set_device+0x3c>
    e454:	e5940004 	ldr	r0, [r4, #4]
    e458:	e3500000 	cmp	r0, #0
    e45c:	0a000000 	beq	e464 <rt_console_set_device+0x2c>
    e460:	ebffee12 	bl	9cb0 <rt_device_close>
    e464:	e1a00005 	mov	r0, r5
    e468:	e3a01003 	mov	r1, #3
    e46c:	e5845004 	str	r5, [r4, #4]
    e470:	ebffedc0 	bl	9b78 <rt_device_open>
    e474:	e1a00006 	mov	r0, r6
    e478:	e8bd8070 	pop	{r4, r5, r6, pc}

0000e47c <rt_hw_console_output>:
    e47c:	e12fff1e 	bx	lr

0000e480 <rt_kprintf>:
    e480:	e92d000f 	push	{r0, r1, r2, r3}
    e484:	e3a0107f 	mov	r1, #127	; 0x7f
    e488:	e92d4030 	push	{r4, r5, lr}
    e48c:	e24dd00c 	sub	sp, sp, #12
    e490:	e28dc01c 	add	ip, sp, #28
    e494:	e30e43e4 	movw	r4, #58340	; 0xe3e4
    e498:	e3404002 	movt	r4, #2
    e49c:	e59d2018 	ldr	r2, [sp, #24]
    e4a0:	e1a0300c 	mov	r3, ip
    e4a4:	e2840008 	add	r0, r4, #8
    e4a8:	e58dc004 	str	ip, [sp, #4]
    e4ac:	ebfffde5 	bl	dc48 <rt_vsnprintf>
    e4b0:	e594c004 	ldr	ip, [r4, #4]
    e4b4:	e35c0000 	cmp	ip, #0
    e4b8:	e1a03000 	mov	r3, r0
    e4bc:	0a00000e 	beq	e4fc <rt_kprintf+0x7c>
    e4c0:	e1dc51b2 	ldrh	r5, [ip, #18]
    e4c4:	e353007f 	cmp	r3, #127	; 0x7f
    e4c8:	23a0307f 	movcs	r3, #127	; 0x7f
    e4cc:	e1a0000c 	mov	r0, ip
    e4d0:	e3a01000 	mov	r1, #0
    e4d4:	e385e040 	orr	lr, r5, #64	; 0x40
    e4d8:	e2842008 	add	r2, r4, #8
    e4dc:	e1cce1b2 	strh	lr, [ip, #18]
    e4e0:	ebffee44 	bl	9df8 <rt_device_write>
    e4e4:	e5943004 	ldr	r3, [r4, #4]
    e4e8:	e1c351b2 	strh	r5, [r3, #18]
    e4ec:	e28dd00c 	add	sp, sp, #12
    e4f0:	e8bd4030 	pop	{r4, r5, lr}
    e4f4:	e28dd010 	add	sp, sp, #16
    e4f8:	e12fff1e 	bx	lr
    e4fc:	e2840008 	add	r0, r4, #8
    e500:	ebffffdd 	bl	e47c <rt_hw_console_output>
    e504:	eafffff8 	b	e4ec <rt_kprintf+0x6c>

0000e508 <rt_show_version>:
    e508:	e52de004 	push	{lr}		; (str lr, [sp, #-4]!)
    e50c:	e30c0b50 	movw	r0, #52048	; 0xcb50
    e510:	e24dd00c 	sub	sp, sp, #12
    e514:	e3400002 	movt	r0, #2
    e518:	ebffffd8 	bl	e480 <rt_kprintf>
    e51c:	e30c0b5c 	movw	r0, #52060	; 0xcb5c
    e520:	e3400002 	movt	r0, #2
    e524:	ebffffd5 	bl	e480 <rt_kprintf>
    e528:	e3a02000 	mov	r2, #0
    e52c:	e3a01002 	mov	r1, #2
    e530:	e1a03002 	mov	r3, r2
    e534:	e30c0b80 	movw	r0, #52096	; 0xcb80
    e538:	e3400002 	movt	r0, #2
    e53c:	e30ccba0 	movw	ip, #52128	; 0xcba0
    e540:	e340c002 	movt	ip, #2
    e544:	e58dc000 	str	ip, [sp]
    e548:	ebffffcc 	bl	e480 <rt_kprintf>
    e54c:	e30c0bac 	movw	r0, #52140	; 0xcbac
    e550:	e3400002 	movt	r0, #2
    e554:	e28dd00c 	add	sp, sp, #12
    e558:	e49de004 	pop	{lr}		; (ldr lr, [sp], #4)
    e55c:	eaffffc7 	b	e480 <rt_kprintf>

0000e560 <rt_malloc_align>:
    e560:	e2811003 	add	r1, r1, #3
    e564:	e2802003 	add	r2, r0, #3
    e568:	e92d4010 	push	{r4, lr}
    e56c:	e3c20003 	bic	r0, r2, #3
    e570:	e3c14003 	bic	r4, r1, #3
    e574:	e0840000 	add	r0, r4, r0
    e578:	eb0000ea 	bl	e928 <rt_malloc>
    e57c:	e3500000 	cmp	r0, #0
    e580:	08bd8010 	popeq	{r4, pc}
    e584:	e2443001 	sub	r3, r4, #1
    e588:	e1100003 	tst	r0, r3
    e58c:	12644000 	rsbne	r4, r4, #0
    e590:	10803003 	addne	r3, r0, r3
    e594:	00804004 	addeq	r4, r0, r4
    e598:	10034004 	andne	r4, r3, r4
    e59c:	e5040004 	str	r0, [r4, #-4]
    e5a0:	e1a00004 	mov	r0, r4
    e5a4:	e8bd8010 	pop	{r4, pc}

0000e5a8 <rt_free_align>:
    e5a8:	e5100004 	ldr	r0, [r0, #-4]
    e5ac:	ea0001c5 	b	ecc8 <rt_free>

0000e5b0 <__rt_ffs>:
    e5b0:	e3500000 	cmp	r0, #0
    e5b4:	012fff1e 	bxeq	lr
    e5b8:	e6ef3070 	uxtb	r3, r0
    e5bc:	e3530000 	cmp	r3, #0
    e5c0:	1a00000b 	bne	e5f4 <__rt_ffs+0x44>
    e5c4:	e2102cff 	ands	r2, r0, #65280	; 0xff00
    e5c8:	e30b3754 	movw	r3, #46932	; 0xb754
    e5cc:	e3403002 	movt	r3, #2
    e5d0:	1a00000d 	bne	e60c <__rt_ffs+0x5c>
    e5d4:	e21028ff 	ands	r2, r0, #16711680	; 0xff0000
    e5d8:	00830c20 	addeq	r0, r3, r0, lsr #24
    e5dc:	10833822 	addne	r3, r3, r2, lsr #16
    e5e0:	05d00028 	ldrbeq	r0, [r0, #40]	; 0x28
    e5e4:	15d30028 	ldrbne	r0, [r3, #40]	; 0x28
    e5e8:	02800019 	addeq	r0, r0, #25
    e5ec:	12800011 	addne	r0, r0, #17
    e5f0:	e12fff1e 	bx	lr
    e5f4:	e30b2754 	movw	r2, #46932	; 0xb754
    e5f8:	e3402002 	movt	r2, #2
    e5fc:	e0823003 	add	r3, r2, r3
    e600:	e5d30028 	ldrb	r0, [r3, #40]	; 0x28
    e604:	e2800001 	add	r0, r0, #1
    e608:	e12fff1e 	bx	lr
    e60c:	e083c422 	add	ip, r3, r2, lsr #8
    e610:	e5dc1028 	ldrb	r1, [ip, #40]	; 0x28
    e614:	e2810009 	add	r0, r1, #9
    e618:	e12fff1e 	bx	lr

0000e61c <list_mem>:
    e61c:	e92d4010 	push	{r4, lr}
    e620:	e30e446c 	movw	r4, #58476	; 0xe46c
    e624:	e3404002 	movt	r4, #2
    e628:	e30c0bd8 	movw	r0, #52184	; 0xcbd8
    e62c:	e3400002 	movt	r0, #2
    e630:	e5941000 	ldr	r1, [r4]
    e634:	ebffff91 	bl	e480 <rt_kprintf>
    e638:	e5941004 	ldr	r1, [r4, #4]
    e63c:	e30c0bec 	movw	r0, #52204	; 0xcbec
    e640:	e3400002 	movt	r0, #2
    e644:	ebffff8d 	bl	e480 <rt_kprintf>
    e648:	e30c0c00 	movw	r0, #52224	; 0xcc00
    e64c:	e5941008 	ldr	r1, [r4, #8]
    e650:	e3400002 	movt	r0, #2
    e654:	e8bd4010 	pop	{r4, lr}
    e658:	eaffff88 	b	e480 <rt_kprintf>

0000e65c <plug_holes>:
    e65c:	e92d4030 	push	{r4, r5, lr}
    e660:	e30e546c 	movw	r5, #58476	; 0xe46c
    e664:	e3405002 	movt	r5, #2
    e668:	e24dd00c 	sub	sp, sp, #12
    e66c:	e1a04000 	mov	r4, r0
    e670:	e595300c 	ldr	r3, [r5, #12]
    e674:	e1530000 	cmp	r3, r0
    e678:	8a00004c 	bhi	e7b0 <plug_holes+0x154>
    e67c:	e5951010 	ldr	r1, [r5, #16]
    e680:	e1540001 	cmp	r4, r1
    e684:	2a00003b 	bcs	e778 <plug_holes+0x11c>
    e688:	e1d430b2 	ldrh	r3, [r4, #2]
    e68c:	e3530000 	cmp	r3, #0
    e690:	1a00002a 	bne	e740 <plug_holes+0xe4>
    e694:	e595300c 	ldr	r3, [r5, #12]
    e698:	e30e146c 	movw	r1, #58476	; 0xe46c
    e69c:	e5942004 	ldr	r2, [r4, #4]
    e6a0:	e3401002 	movt	r1, #2
    e6a4:	e0832002 	add	r2, r3, r2
    e6a8:	e1540002 	cmp	r4, r2
    e6ac:	0a000002 	beq	e6bc <plug_holes+0x60>
    e6b0:	e1d2c0b2 	ldrh	ip, [r2, #2]
    e6b4:	e35c0000 	cmp	ip, #0
    e6b8:	0a000013 	beq	e70c <plug_holes+0xb0>
    e6bc:	e5941008 	ldr	r1, [r4, #8]
    e6c0:	e0832001 	add	r2, r3, r1
    e6c4:	e1520004 	cmp	r2, r4
    e6c8:	0a00000d 	beq	e704 <plug_holes+0xa8>
    e6cc:	e1d200b2 	ldrh	r0, [r2, #2]
    e6d0:	e3500000 	cmp	r0, #0
    e6d4:	1a00000a 	bne	e704 <plug_holes+0xa8>
    e6d8:	e5941004 	ldr	r1, [r4, #4]
    e6dc:	e30ec46c 	movw	ip, #58476	; 0xe46c
    e6e0:	e5950014 	ldr	r0, [r5, #20]
    e6e4:	e340c002 	movt	ip, #2
    e6e8:	e1500004 	cmp	r0, r4
    e6ec:	e5821004 	str	r1, [r2, #4]
    e6f0:	058c2014 	streq	r2, [ip, #20]
    e6f4:	e063c002 	rsb	ip, r3, r2
    e6f8:	e5942004 	ldr	r2, [r4, #4]
    e6fc:	e0833002 	add	r3, r3, r2
    e700:	e583c008 	str	ip, [r3, #8]
    e704:	e28dd00c 	add	sp, sp, #12
    e708:	e8bd8030 	pop	{r4, r5, pc}
    e70c:	e5910010 	ldr	r0, [r1, #16]
    e710:	e1520000 	cmp	r2, r0
    e714:	0affffe8 	beq	e6bc <plug_holes+0x60>
    e718:	e5920004 	ldr	r0, [r2, #4]
    e71c:	e591c014 	ldr	ip, [r1, #20]
    e720:	e5840004 	str	r0, [r4, #4]
    e724:	e15c0002 	cmp	ip, r2
    e728:	e592c004 	ldr	ip, [r2, #4]
    e72c:	05814014 	streq	r4, [r1, #20]
    e730:	e0631004 	rsb	r1, r3, r4
    e734:	e083200c 	add	r2, r3, ip
    e738:	e5821008 	str	r1, [r2, #8]
    e73c:	eaffffde 	b	e6bc <plug_holes+0x60>
    e740:	e30c082c 	movw	r0, #51244	; 0xc82c
    e744:	e30c1c6c 	movw	r1, #52332	; 0xcc6c
    e748:	e30b287c 	movw	r2, #47228	; 0xb87c
    e74c:	e3400002 	movt	r0, #2
    e750:	e3401002 	movt	r1, #2
    e754:	e3402002 	movt	r2, #2
    e758:	e3a0308f 	mov	r3, #143	; 0x8f
    e75c:	e3a0c000 	mov	ip, #0
    e760:	e5cdc007 	strb	ip, [sp, #7]
    e764:	ebffff45 	bl	e480 <rt_kprintf>
    e768:	e5dd0007 	ldrb	r0, [sp, #7]
    e76c:	e3500000 	cmp	r0, #0
    e770:	0afffffc 	beq	e768 <plug_holes+0x10c>
    e774:	eaffffc6 	b	e694 <plug_holes+0x38>
    e778:	e30c082c 	movw	r0, #51244	; 0xc82c
    e77c:	e30c1c40 	movw	r1, #52288	; 0xcc40
    e780:	e30b287c 	movw	r2, #47228	; 0xb87c
    e784:	e3400002 	movt	r0, #2
    e788:	e3401002 	movt	r1, #2
    e78c:	e3402002 	movt	r2, #2
    e790:	e3a0308e 	mov	r3, #142	; 0x8e
    e794:	e3a0e000 	mov	lr, #0
    e798:	e5cde007 	strb	lr, [sp, #7]
    e79c:	ebffff37 	bl	e480 <rt_kprintf>
    e7a0:	e5dd2007 	ldrb	r2, [sp, #7]
    e7a4:	e3520000 	cmp	r2, #0
    e7a8:	0afffffc 	beq	e7a0 <plug_holes+0x144>
    e7ac:	eaffffb5 	b	e688 <plug_holes+0x2c>
    e7b0:	e30c082c 	movw	r0, #51244	; 0xc82c
    e7b4:	e30c1c20 	movw	r1, #52256	; 0xcc20
    e7b8:	e30b287c 	movw	r2, #47228	; 0xb87c
    e7bc:	e3400002 	movt	r0, #2
    e7c0:	e3401002 	movt	r1, #2
    e7c4:	e3402002 	movt	r2, #2
    e7c8:	e3a0308d 	mov	r3, #141	; 0x8d
    e7cc:	e3a0c000 	mov	ip, #0
    e7d0:	e5cdc007 	strb	ip, [sp, #7]
    e7d4:	ebffff29 	bl	e480 <rt_kprintf>
    e7d8:	e5dd0007 	ldrb	r0, [sp, #7]
    e7dc:	e3500000 	cmp	r0, #0
    e7e0:	0afffffc 	beq	e7d8 <plug_holes+0x17c>
    e7e4:	eaffffa4 	b	e67c <plug_holes+0x20>

0000e7e8 <rt_malloc_sethook>:
    e7e8:	e30e346c 	movw	r3, #58476	; 0xe46c
    e7ec:	e3403002 	movt	r3, #2
    e7f0:	e5830018 	str	r0, [r3, #24]
    e7f4:	e12fff1e 	bx	lr

0000e7f8 <rt_free_sethook>:
    e7f8:	e30e346c 	movw	r3, #58476	; 0xe46c
    e7fc:	e3403002 	movt	r3, #2
    e800:	e583001c 	str	r0, [r3, #28]
    e804:	e12fff1e 	bx	lr

0000e808 <rt_system_heap_init>:
    e808:	e92d41f0 	push	{r4, r5, r6, r7, r8, lr}
    e80c:	e24dd008 	sub	sp, sp, #8
    e810:	e1a04001 	mov	r4, r1
    e814:	e1a06000 	mov	r6, r0
    e818:	ebffe8f4 	bl	8bf0 <rt_hw_interrupt_disable>
    e81c:	e3c45003 	bic	r5, r4, #3
    e820:	e1a07000 	mov	r7, r0
    e824:	ebfff9a1 	bl	ceb0 <rt_interrupt_get_nest>
    e828:	e3500000 	cmp	r0, #0
    e82c:	1a00000f 	bne	e870 <rt_system_heap_init+0x68>
    e830:	e1a00007 	mov	r0, r7
    e834:	ebffe8f1 	bl	8c00 <rt_hw_interrupt_enable>
    e838:	e3550018 	cmp	r5, #24
    e83c:	9a000004 	bls	e854 <rt_system_heap_init+0x4c>
    e840:	e2860003 	add	r0, r6, #3
    e844:	e2455018 	sub	r5, r5, #24
    e848:	e3c0c003 	bic	ip, r0, #3
    e84c:	e15c0005 	cmp	ip, r5
    e850:	9a000017 	bls	e8b4 <rt_system_heap_init+0xac>
    e854:	e30c0c84 	movw	r0, #52356	; 0xcc84
    e858:	e1a01006 	mov	r1, r6
    e85c:	e3400002 	movt	r0, #2
    e860:	e1a02004 	mov	r2, r4
    e864:	e28dd008 	add	sp, sp, #8
    e868:	e8bd41f0 	pop	{r4, r5, r6, r7, r8, lr}
    e86c:	eaffff03 	b	e480 <rt_kprintf>
    e870:	e59f10ac 	ldr	r1, [pc, #172]	; e924 <rt_system_heap_init+0x11c>
    e874:	e30c0a6c 	movw	r0, #51820	; 0xca6c
    e878:	e3400002 	movt	r0, #2
    e87c:	ebfffeff 	bl	e480 <rt_kprintf>
    e880:	e30c082c 	movw	r0, #51244	; 0xc82c
    e884:	e30c1b44 	movw	r1, #52036	; 0xcb44
    e888:	e3400002 	movt	r0, #2
    e88c:	e3401002 	movt	r1, #2
    e890:	e59f208c 	ldr	r2, [pc, #140]	; e924 <rt_system_heap_init+0x11c>
    e894:	e3a030be 	mov	r3, #190	; 0xbe
    e898:	e3a0c000 	mov	ip, #0
    e89c:	e5cdc007 	strb	ip, [sp, #7]
    e8a0:	ebfffef6 	bl	e480 <rt_kprintf>
    e8a4:	e5dd3007 	ldrb	r3, [sp, #7]
    e8a8:	e3530000 	cmp	r3, #0
    e8ac:	0afffffc 	beq	e8a4 <rt_system_heap_init+0x9c>
    e8b0:	eaffffde 	b	e830 <rt_system_heap_init+0x28>
    e8b4:	e06c5005 	rsb	r5, ip, r5
    e8b8:	e30e446c 	movw	r4, #58476	; 0xe46c
    e8bc:	e285e00c 	add	lr, r5, #12
    e8c0:	e3404002 	movt	r4, #2
    e8c4:	e08c600e 	add	r6, ip, lr
    e8c8:	e3a07001 	mov	r7, #1
    e8cc:	e3a03000 	mov	r3, #0
    e8d0:	e3018ea0 	movw	r8, #7840	; 0x1ea0
    e8d4:	e58ce004 	str	lr, [ip, #4]
    e8d8:	e2840020 	add	r0, r4, #32
    e8dc:	e1cc80b0 	strh	r8, [ip]
    e8e0:	e30c1c7c 	movw	r1, #52348	; 0xcc7c
    e8e4:	e58c3008 	str	r3, [ip, #8]
    e8e8:	e3401002 	movt	r1, #2
    e8ec:	e1cc30b2 	strh	r3, [ip, #2]
    e8f0:	e1a02007 	mov	r2, r7
    e8f4:	e18c80be 	strh	r8, [ip, lr]
    e8f8:	e1c670b2 	strh	r7, [r6, #2]
    e8fc:	e586e004 	str	lr, [r6, #4]
    e900:	e586e008 	str	lr, [r6, #8]
    e904:	e5845000 	str	r5, [r4]
    e908:	e584c00c 	str	ip, [r4, #12]
    e90c:	e5846010 	str	r6, [r4, #16]
    e910:	ebffee1a 	bl	a180 <rt_sem_init>
    e914:	e594100c 	ldr	r1, [r4, #12]
    e918:	e5841014 	str	r1, [r4, #20]
    e91c:	e28dd008 	add	sp, sp, #8
    e920:	e8bd81f0 	pop	{r4, r5, r6, r7, r8, pc}
    e924:	0002b888 	andeq	fp, r2, r8, lsl #17

0000e928 <rt_malloc>:
    e928:	e92d45f0 	push	{r4, r5, r6, r7, r8, sl, lr}
